ARM GAS  C:\Users\owono\AppData\Local\Temp\cceR3g3U.s 			page 1


   1              		.cpu cortex-m0
   2              		.fpu softvfp
   3              		.eabi_attribute 20, 1
   4              		.eabi_attribute 21, 1
   5              		.eabi_attribute 23, 3
   6              		.eabi_attribute 24, 1
   7              		.eabi_attribute 25, 1
   8              		.eabi_attribute 26, 1
   9              		.eabi_attribute 30, 6
  10              		.eabi_attribute 34, 0
  11              		.eabi_attribute 18, 4
  12              		.code	16
  13              		.file	"BLEApplications.c"
  14              		.text
  15              	.Ltext0:
  16              		.cfi_sections	.debug_frame
  17              		.global	deviceConnected
  18              		.bss
  19              		.type	deviceConnected, %object
  20              		.size	deviceConnected, 1
  21              	deviceConnected:
  22 0000 00       		.space	1
  23              		.global	startNotification
  24              		.type	startNotification, %object
  25              		.size	startNotification, 1
  26              	startNotification:
  27 0001 00       		.space	1
  28              		.comm	connectionHandle,2,4
  29              		.global	restartAdvertisement
  30              		.type	restartAdvertisement, %object
  31              		.size	restartAdvertisement, 1
  32              	restartAdvertisement:
  33 0002 00       		.space	1
  34              		.global	updateNotificationCCCAttribute
  35              		.type	updateNotificationCCCAttribute, %object
  36              		.size	updateNotificationCCCAttribute, 1
  37              	updateNotificationCCCAttribute:
  38 0003 00       		.space	1
  39              		.data
  40              		.type	isConnectionUpdateRequested, %object
  41              		.size	isConnectionUpdateRequested, 1
  42              	isConnectionUpdateRequested:
  43 0000 01       		.byte	1
  44 0001 000000   		.align	2
  45              		.type	ConnectionParam, %object
  46              		.size	ConnectionParam, 8
  47              	ConnectionParam:
  48 0004 4006     		.short	1600
  49 0006 4006     		.short	1600
  50 0008 0000     		.short	0
  51 000a 5802     		.short	600
  52              		.global	busyStatus
  53              		.bss
  54              		.type	busyStatus, %object
  55              		.size	busyStatus, 1
  56              	busyStatus:
  57 0004 00       		.space	1
ARM GAS  C:\Users\owono\AppData\Local\Temp\cceR3g3U.s 			page 2


  58              		.section	.text.InitializeBLESystem,"ax",%progbits
  59              		.align	2
  60              		.global	InitializeBLESystem
  61              		.code	16
  62              		.thumb_func
  63              		.type	InitializeBLESystem, %function
  64              	InitializeBLESystem:
  65              	.LFB37:
  66              		.file 1 ".\\BLEApplications.c"
   1:.\BLEApplications.c **** /***************************************************************************//**
   2:.\BLEApplications.c **** * @file    BLEApplications.c
   3:.\BLEApplications.c **** * @version 1.0
   4:.\BLEApplications.c **** * @author  Chethan (dche@cypress.com)
   5:.\BLEApplications.c **** *
   6:.\BLEApplications.c **** * @par Description
   7:.\BLEApplications.c **** *     This file contains the source code for the APIs used for BLE communication.
   8:.\BLEApplications.c **** *
   9:.\BLEApplications.c **** * @par Notes
  10:.\BLEApplications.c **** *	None
  11:.\BLEApplications.c **** *
  12:.\BLEApplications.c **** * @par Hardware Dependency
  13:.\BLEApplications.c **** *    1. CY8CKIT-042 BLE Pioneer Kit
  14:.\BLEApplications.c **** *
  15:.\BLEApplications.c **** * @par References
  16:.\BLEApplications.c **** *    1. 001-32359: AN2283 "PSoC1: Frequency Measurement"
  17:.\BLEApplications.c **** *
  18:.\BLEApplications.c **** * @par Code Tested With
  19:.\BLEApplications.c **** *    1. PSoC Creator  3.1 SP2 (3.1.0.2177)
  20:.\BLEApplications.c **** *    2. GCC 4.8.4
  21:.\BLEApplications.c **** *
  22:.\BLEApplications.c **** **//****************************************************************************
  23:.\BLEApplications.c **** * Copyright (2015), Cypress Semiconductor Corporation.
  24:.\BLEApplications.c **** ********************************************************************************
  25:.\BLEApplications.c **** * All rights reserved. 
  26:.\BLEApplications.c **** * This software, including source code, documentation and related 
  27:.\BLEApplications.c **** * materials (“Software”), is owned by Cypress Semiconductor 
  28:.\BLEApplications.c **** * Corporation (“Cypress”) and is protected by and subject to worldwide 
  29:.\BLEApplications.c **** * patent protection (United States and foreign), United States copyright 
  30:.\BLEApplications.c **** * laws and international treaty provisions. Therefore, you may use this 
  31:.\BLEApplications.c **** * Software only as provided in the license agreement accompanying the 
  32:.\BLEApplications.c **** * software package from which you obtained this Software (“EULA”). 
  33:.\BLEApplications.c **** *
  34:.\BLEApplications.c **** * If no EULA applies, Cypress hereby grants you a personal, non-exclusive, 
  35:.\BLEApplications.c **** * non-transferable license to copy, modify and compile the Software source code
  36:.\BLEApplications.c **** * solely for your use in connection with Cypress's integrated circuit products.
  37:.\BLEApplications.c **** * Any reproduction, modification, translation, compilation, or representation
  38:.\BLEApplications.c **** * of this Software except as specified above is prohibited without the express
  39:.\BLEApplications.c **** * written permission of Cypress.
  40:.\BLEApplications.c **** 
  41:.\BLEApplications.c **** * Disclaimer: THIS SOFTWARE IS PROVIDED AS-IS, WITH NO WARRANTY OF ANY KIND,
  42:.\BLEApplications.c **** * EXPRESS OR IMPLIED, INCLUDING, BUT NOT LIMITED TO, NONINFRINGEMENT, IMPLIED
  43:.\BLEApplications.c **** * WARRANTIES OF MERCHANTABILITY AND FITNESS FOR A PARTICULAR PURPOSE.
  44:.\BLEApplications.c **** * Cypress reserves the right to make changes to the Software without notice. 
  45:.\BLEApplications.c **** * Cypress does not assume any liability arising out of the application or use 
  46:.\BLEApplications.c **** * of the Software or any product or circuit described in the Software. Cypress
  47:.\BLEApplications.c **** * does not authorize its products for use in any products where a malfunction
  48:.\BLEApplications.c **** * or failure of the Cypress product may reasonably be expected to result in 
ARM GAS  C:\Users\owono\AppData\Local\Temp\cceR3g3U.s 			page 3


  49:.\BLEApplications.c **** * significant property damage, injury or death (“High Risk Product”). By 
  50:.\BLEApplications.c **** * including Cypress’s product in a High Risk Product, the manufacturer of such  
  51:.\BLEApplications.c **** * system or application assumes all risk of such use and in doing so agrees to  
  52:.\BLEApplications.c **** * indemnify Cypress against all liability. 
  53:.\BLEApplications.c **** *******************************************************************************/
  54:.\BLEApplications.c **** 
  55:.\BLEApplications.c **** /******************************************************************************
  56:.\BLEApplications.c **** * Contains BLE application functions definitions such as EventHandler and Macro
  57:.\BLEApplications.c **** * definitions
  58:.\BLEApplications.c **** ******************************************************************************/
  59:.\BLEApplications.c **** #include "main.h"
  60:.\BLEApplications.c **** 
  61:.\BLEApplications.c **** /**************************Variable Declarations*****************************/
  62:.\BLEApplications.c **** /*'deviceConnected' flag is used by application to know whether a Central device  
  63:.\BLEApplications.c **** * has been connected. This is updated in BLE event callback */
  64:.\BLEApplications.c **** uint8 deviceConnected = FALSE;	
  65:.\BLEApplications.c **** 
  66:.\BLEApplications.c **** /*'startNotification' flag is set when the central device writes to CCC (Client 
  67:.\BLEApplications.c **** * Characteristic Configuration) of the Custom characteristic to 
  68:.\BLEApplications.c **** * enable notifications */
  69:.\BLEApplications.c **** uint8 startNotification = FALSE;		
  70:.\BLEApplications.c **** 
  71:.\BLEApplications.c **** /* 'connectionHandle' is handle to store BLE connection parameters */
  72:.\BLEApplications.c **** CYBLE_CONN_HANDLE_T  connectionHandle;	
  73:.\BLEApplications.c **** 
  74:.\BLEApplications.c **** /* 'restartAdvertisement' flag provided the present state of power mode in firmware */
  75:.\BLEApplications.c **** uint8 restartAdvertisement = FALSE;
  76:.\BLEApplications.c **** 
  77:.\BLEApplications.c **** /* This flag is used to let application update the CCCD value for correct read 
  78:.\BLEApplications.c **** * operation by connected Central device */
  79:.\BLEApplications.c **** uint8 updateNotificationCCCAttribute = FALSE;
  80:.\BLEApplications.c **** 
  81:.\BLEApplications.c **** /* This flag is used to let application send a L2CAP connection update request
  82:.\BLEApplications.c **** * to Central device */
  83:.\BLEApplications.c **** static uint8 isConnectionUpdateRequested = TRUE;
  84:.\BLEApplications.c **** 
  85:.\BLEApplications.c **** /* Connection Parameter update values. This values are used by the BLE component
  86:.\BLEApplications.c **** * to update the connector parameter, including connection interval, to desired 
  87:.\BLEApplications.c **** * value */
  88:.\BLEApplications.c **** static CYBLE_GAP_CONN_UPDATE_PARAM_T ConnectionParam =
  89:.\BLEApplications.c **** {
  90:.\BLEApplications.c ****     CONN_PARAM_UPDATE_MIN_CONN_INTERVAL,  		      
  91:.\BLEApplications.c ****     CONN_PARAM_UPDATE_MAX_CONN_INTERVAL,		       
  92:.\BLEApplications.c ****     CONN_PARAM_UPDATE_SLAVE_LATENCY,			    
  93:.\BLEApplications.c ****     CONN_PARAM_UPDATE_SUPRV_TIMEOUT 			         	
  94:.\BLEApplications.c **** };
  95:.\BLEApplications.c **** 
  96:.\BLEApplications.c **** /* Status flag for the Stack Busy state. This flag is used to notify the application 
  97:.\BLEApplications.c **** * whether there is stack buffer free to push more data or not */
  98:.\BLEApplications.c **** uint8 busyStatus = 0;
  99:.\BLEApplications.c **** /****************************************************************************/
 100:.\BLEApplications.c **** 
 101:.\BLEApplications.c **** /*******************************************************************************
 102:.\BLEApplications.c **** * Function Name: InitializeBLESystem
 103:.\BLEApplications.c **** ********************************************************************************
 104:.\BLEApplications.c **** * Summary:
 105:.\BLEApplications.c **** *  Starts the BLE component and wakeup_button_ISR
ARM GAS  C:\Users\owono\AppData\Local\Temp\cceR3g3U.s 			page 4


 106:.\BLEApplications.c **** *
 107:.\BLEApplications.c **** * Parameters:
 108:.\BLEApplications.c **** *  void
 109:.\BLEApplications.c **** *
 110:.\BLEApplications.c **** * Return:
 111:.\BLEApplications.c **** *  void
 112:.\BLEApplications.c **** *
 113:.\BLEApplications.c **** *******************************************************************************/
 114:.\BLEApplications.c **** void InitializeBLESystem(void)
 115:.\BLEApplications.c **** {
  67              		.loc 1 115 0
  68              		.cfi_startproc
  69 0000 80B5     		push	{r7, lr}
  70              		.cfi_def_cfa_offset 8
  71              		.cfi_offset 7, -8
  72              		.cfi_offset 14, -4
  73 0002 00AF     		add	r7, sp, #0
  74              		.cfi_def_cfa_register 7
 116:.\BLEApplications.c **** 	/* Start BLE component and register the CustomEventHandler function. This 
 117:.\BLEApplications.c **** 	* function exposes the events from BLE component for application use */
 118:.\BLEApplications.c **** 	CyBle_Start(CustomEventHandler);					
  75              		.loc 1 118 0
  76 0004 044B     		ldr	r3, .L2
  77 0006 181C     		mov	r0, r3
  78 0008 FFF7FEFF 		bl	CyBle_Start
 119:.\BLEApplications.c **** 	
 120:.\BLEApplications.c **** 	/* Set drive mode of the status LED pin to Strong*/
 121:.\BLEApplications.c **** 	Status_LED_SetDriveMode(Status_LED_DM_STRONG);	
  79              		.loc 1 121 0
  80 000c 0620     		mov	r0, #6
  81 000e FFF7FEFF 		bl	Status_LED_SetDriveMode
 122:.\BLEApplications.c **** }
  82              		.loc 1 122 0
  83 0012 BD46     		mov	sp, r7
  84              		@ sp needed
  85 0014 80BD     		pop	{r7, pc}
  86              	.L3:
  87 0016 C046     		.align	2
  88              	.L2:
  89 0018 00000000 		.word	CustomEventHandler
  90              		.cfi_endproc
  91              	.LFE37:
  92              		.size	InitializeBLESystem, .-InitializeBLESystem
  93              		.section	.text.CustomEventHandler,"ax",%progbits
  94              		.align	2
  95              		.global	CustomEventHandler
  96              		.code	16
  97              		.thumb_func
  98              		.type	CustomEventHandler, %function
  99              	CustomEventHandler:
 100              	.LFB38:
 123:.\BLEApplications.c **** 
 124:.\BLEApplications.c **** /*******************************************************************************
 125:.\BLEApplications.c **** * Function Name: CustomEventHandler
 126:.\BLEApplications.c **** ********************************************************************************
 127:.\BLEApplications.c **** * Summary:
 128:.\BLEApplications.c **** *  Call back event function to handle various events from BLE stack
ARM GAS  C:\Users\owono\AppData\Local\Temp\cceR3g3U.s 			page 5


 129:.\BLEApplications.c **** *
 130:.\BLEApplications.c **** * Parameters:
 131:.\BLEApplications.c **** *  event:		event returned
 132:.\BLEApplications.c **** *  eventParam:	link to value of the event parameter returned
 133:.\BLEApplications.c **** *
 134:.\BLEApplications.c **** * Return:
 135:.\BLEApplications.c **** *  void
 136:.\BLEApplications.c **** *
 137:.\BLEApplications.c **** *******************************************************************************/
 138:.\BLEApplications.c **** void CustomEventHandler(uint32 event, void *eventParam)
 139:.\BLEApplications.c **** {
 101              		.loc 1 139 0
 102              		.cfi_startproc
 103 0000 80B5     		push	{r7, lr}
 104              		.cfi_def_cfa_offset 8
 105              		.cfi_offset 7, -8
 106              		.cfi_offset 14, -4
 107 0002 84B0     		sub	sp, sp, #16
 108              		.cfi_def_cfa_offset 24
 109 0004 00AF     		add	r7, sp, #0
 110              		.cfi_def_cfa_register 7
 111 0006 7860     		str	r0, [r7, #4]
 112 0008 3960     		str	r1, [r7]
 140:.\BLEApplications.c ****     CYBLE_GATTS_WRITE_REQ_PARAM_T *wrReqParam;
 141:.\BLEApplications.c **** 	
 142:.\BLEApplications.c ****     switch(event)
 113              		.loc 1 142 0
 114 000a 7B68     		ldr	r3, [r7, #4]
 115 000c 282B     		cmp	r3, #40
 116 000e 20D0     		beq	.L6
 117 0010 07D8     		bhi	.L7
 118 0012 052B     		cmp	r3, #5
 119 0014 00D1     		bne	.LCB48
 120 0016 64E0     		b	.L8	@long jump
 121              	.LCB48:
 122 0018 262B     		cmp	r3, #38
 123 001a 11D0     		beq	.L9
 124 001c 012B     		cmp	r3, #1
 125 001e 0BD0     		beq	.L10
 143:.\BLEApplications.c **** 	{
 144:.\BLEApplications.c ****         /**********************************************************
 145:.\BLEApplications.c ****         *                       General Events
 146:.\BLEApplications.c ****         ***********************************************************/
 147:.\BLEApplications.c **** 		case CYBLE_EVT_STACK_ON:
 148:.\BLEApplications.c **** 			/* This event is received when component is Started */
 149:.\BLEApplications.c **** 
 150:.\BLEApplications.c **** 			/* Set restartAdvertisement flag to allow calling Advertisement 
 151:.\BLEApplications.c **** 			* API from main function */
 152:.\BLEApplications.c **** 			restartAdvertisement = TRUE;
 153:.\BLEApplications.c **** 			
 154:.\BLEApplications.c **** 			break;
 155:.\BLEApplications.c **** 		
 156:.\BLEApplications.c ****         /**********************************************************
 157:.\BLEApplications.c ****         *                       GAP Events
 158:.\BLEApplications.c ****         ***********************************************************/
 159:.\BLEApplications.c **** 		
 160:.\BLEApplications.c ****         case CYBLE_EVT_GAPP_ADVERTISEMENT_START_STOP:
ARM GAS  C:\Users\owono\AppData\Local\Temp\cceR3g3U.s 			page 6


 161:.\BLEApplications.c **** 			
 162:.\BLEApplications.c **** 			if(CyBle_GetState() == CYBLE_STATE_DISCONNECTED)
 163:.\BLEApplications.c **** 			{
 164:.\BLEApplications.c **** 				/* Set restartAdvertisement flag to allow calling Advertisement 
 165:.\BLEApplications.c **** 				* API from main function */
 166:.\BLEApplications.c **** 				restartAdvertisement = TRUE;
 167:.\BLEApplications.c **** 			}
 168:.\BLEApplications.c **** 			break;
 169:.\BLEApplications.c **** 		
 170:.\BLEApplications.c ****         case CYBLE_EVT_GAP_DEVICE_DISCONNECTED:		
 171:.\BLEApplications.c **** 			/* This event is received when device is disconnected */
 172:.\BLEApplications.c **** 			
 173:.\BLEApplications.c **** 			/* Set restartAdvertisement flag to allow calling Advertisement 
 174:.\BLEApplications.c **** 			* API from main function */
 175:.\BLEApplications.c **** 			restartAdvertisement = TRUE;
 176:.\BLEApplications.c **** 
 177:.\BLEApplications.c ****             break;
 178:.\BLEApplications.c **** 
 179:.\BLEApplications.c ****         /**********************************************************
 180:.\BLEApplications.c ****         *                       GATT Events
 181:.\BLEApplications.c ****         ***********************************************************/
 182:.\BLEApplications.c ****         case CYBLE_EVT_GATT_CONNECT_IND:
 183:.\BLEApplications.c **** 			/* This event is received when device is connected over GATT level */
 184:.\BLEApplications.c **** 			
 185:.\BLEApplications.c **** 			/* Update attribute handle on GATT Connection*/
 186:.\BLEApplications.c ****             connectionHandle = *(CYBLE_CONN_HANDLE_T *)eventParam;	
 187:.\BLEApplications.c **** 			
 188:.\BLEApplications.c **** 			/* This flag is used in application to check connection status */
 189:.\BLEApplications.c **** 			deviceConnected = TRUE;	
 190:.\BLEApplications.c **** 	
 191:.\BLEApplications.c ****             break;
 192:.\BLEApplications.c **** 			
 193:.\BLEApplications.c ****         case CYBLE_EVT_GATT_DISCONNECT_IND:	
 194:.\BLEApplications.c **** 			/*This event is received when device is disconnected. 
 195:.\BLEApplications.c **** 			* Update connection flag accordingly */
 196:.\BLEApplications.c **** 			deviceConnected = FALSE;
 197:.\BLEApplications.c **** 			
 198:.\BLEApplications.c **** 			/* Reset notification flag to prevent further notifications
 199:.\BLEApplications.c **** 			 * being sent to Central device after next connection. */
 200:.\BLEApplications.c **** 			startNotification = FALSE;
 201:.\BLEApplications.c **** 			
 202:.\BLEApplications.c **** 			/* Reset the CCCD value to disable notifications */
 203:.\BLEApplications.c **** 			updateNotificationCCCAttribute = TRUE;
 204:.\BLEApplications.c **** 			UpdateNotificationCCCD();
 205:.\BLEApplications.c **** 			
 206:.\BLEApplications.c **** 			/* Reset the isConnectionUpdateRequested flag to allow sending
 207:.\BLEApplications.c **** 			* connection parameter update request in next connection */
 208:.\BLEApplications.c **** 			isConnectionUpdateRequested = TRUE;
 209:.\BLEApplications.c **** 			break;    
 210:.\BLEApplications.c ****             
 211:.\BLEApplications.c ****         case CYBLE_EVT_GATTS_WRITE_REQ:				
 212:.\BLEApplications.c **** 			/*When this event is triggered, the peripheral has received 
 213:.\BLEApplications.c **** 			* a write command on the custom characteristic */
 214:.\BLEApplications.c **** 			
 215:.\BLEApplications.c **** 			/* Extract the write value from the event parameter */
 216:.\BLEApplications.c ****             wrReqParam = (CYBLE_GATTS_WRITE_REQ_PARAM_T *) eventParam;
 217:.\BLEApplications.c **** 			
ARM GAS  C:\Users\owono\AppData\Local\Temp\cceR3g3U.s 			page 7


 218:.\BLEApplications.c **** 			/* Check if the returned handle is matching to Frequency Measurement Client custom configuration
 219:.\BLEApplications.c ****             if(CYBLE_PSOC4_FREQ_MEASUREMENT_FREQ_MEASUREMENT_CLIENT_CHARACTERISTIC_CONFIGURATION_DE
 220:.\BLEApplications.c ****             {
 221:.\BLEApplications.c ****                 /* Set flag so that application can start  sending notifications.*/
 222:.\BLEApplications.c **** 				startNotification = wrReqParam->handleValPair.value.val[CYBLE_PSOC4_FREQ_MEASUREMENT_FREQ_MEASU
 223:.\BLEApplications.c **** 				
 224:.\BLEApplications.c **** 				if(startNotification == 1)
 225:.\BLEApplications.c **** 				{
 226:.\BLEApplications.c **** 					/* After the connection, send new connection parameter to the Client device 
 227:.\BLEApplications.c **** 					* to run the BLE communication on desired interval. This affects the data rate 
 228:.\BLEApplications.c **** 					* and power consumption. High connection interval will have lower data rate but 
 229:.\BLEApplications.c **** 					* lower power consumption. Low connection interval will have higher data rate at
 230:.\BLEApplications.c **** 					* expense of higher power. This function is called only once per connection. */
 231:.\BLEApplications.c **** 					UpdateConnectionParam();
 232:.\BLEApplications.c **** 				}
 233:.\BLEApplications.c **** 				/* Set flag to allow CCCD to be updated for next read operation */
 234:.\BLEApplications.c **** 				updateNotificationCCCAttribute = TRUE;
 235:.\BLEApplications.c **** 			}
 236:.\BLEApplications.c ****            
 237:.\BLEApplications.c **** 			/* Send the response to the write command received. */
 238:.\BLEApplications.c **** 			CyBle_GattsWriteRsp(connectionHandle);
 239:.\BLEApplications.c **** 			
 240:.\BLEApplications.c ****             break;
 241:.\BLEApplications.c **** 			
 242:.\BLEApplications.c **** 		case CYBLE_EVT_L2CAP_CONN_PARAM_UPDATE_RSP:
 243:.\BLEApplications.c **** 				/* If L2CAP connection parameter update response received, reset application flag */
 244:.\BLEApplications.c ****             	isConnectionUpdateRequested = FALSE;
 245:.\BLEApplications.c ****             break;
 246:.\BLEApplications.c **** 		
 247:.\BLEApplications.c **** 		case CYBLE_EVT_STACK_BUSY_STATUS:
 248:.\BLEApplications.c **** 			/* This event is generated when the internal stack buffer is full and no more
 249:.\BLEApplications.c **** 			* data can be accepted or the stack has buffer available and can accept data.
 250:.\BLEApplications.c **** 			* This event is used by application to prevent pushing lot of data to stack. */
 251:.\BLEApplications.c **** 			
 252:.\BLEApplications.c **** 			/* Extract the present stack status */
 253:.\BLEApplications.c ****             busyStatus = * (uint8*)eventParam;
 254:.\BLEApplications.c ****             break;
 255:.\BLEApplications.c **** 			
 256:.\BLEApplications.c ****         default:
 257:.\BLEApplications.c ****                         
 258:.\BLEApplications.c ****             break;
 126              		.loc 1 258 0
 127 0020 64E0     		b	.L4
 128              	.L7:
 142:.\BLEApplications.c **** 	{
 129              		.loc 1 142 0
 130 0022 422B     		cmp	r3, #66
 131 0024 27D0     		beq	.L11
 132 0026 02D8     		bhi	.L12
 133 0028 412B     		cmp	r3, #65
 134 002a 16D0     		beq	.L13
 135              		.loc 1 258 0
 136 002c 5EE0     		b	.L4
 137              	.L12:
 142:.\BLEApplications.c **** 	{
 138              		.loc 1 142 0
 139 002e 4C2B     		cmp	r3, #76
ARM GAS  C:\Users\owono\AppData\Local\Temp\cceR3g3U.s 			page 8


 140 0030 30D0     		beq	.L14
 141 0032 712B     		cmp	r3, #113
 142 0034 51D0     		beq	.L15
 143              		.loc 1 258 0
 144 0036 59E0     		b	.L4
 145              	.L10:
 152:.\BLEApplications.c **** 			
 146              		.loc 1 152 0
 147 0038 2E4B     		ldr	r3, .L20
 148 003a 0122     		mov	r2, #1
 149 003c 1A70     		strb	r2, [r3]
 154:.\BLEApplications.c **** 		
 150              		.loc 1 154 0
 151 003e 55E0     		b	.L4
 152              	.L9:
 162:.\BLEApplications.c **** 			{
 153              		.loc 1 162 0
 154 0040 2D4B     		ldr	r3, .L20+4
 155 0042 1B78     		ldrb	r3, [r3]
 156 0044 042B     		cmp	r3, #4
 157 0046 03D1     		bne	.L17
 166:.\BLEApplications.c **** 			}
 158              		.loc 1 166 0
 159 0048 2A4B     		ldr	r3, .L20
 160 004a 0122     		mov	r2, #1
 161 004c 1A70     		strb	r2, [r3]
 168:.\BLEApplications.c **** 		
 162              		.loc 1 168 0
 163 004e 4DE0     		b	.L4
 164              	.L17:
 165 0050 4CE0     		b	.L4
 166              	.L6:
 175:.\BLEApplications.c **** 
 167              		.loc 1 175 0
 168 0052 284B     		ldr	r3, .L20
 169 0054 0122     		mov	r2, #1
 170 0056 1A70     		strb	r2, [r3]
 177:.\BLEApplications.c **** 
 171              		.loc 1 177 0
 172 0058 48E0     		b	.L4
 173              	.L13:
 186:.\BLEApplications.c **** 			
 174              		.loc 1 186 0
 175 005a 284A     		ldr	r2, .L20+8
 176 005c 3B68     		ldr	r3, [r7]
 177 005e 111C     		mov	r1, r2
 178 0060 1A1C     		mov	r2, r3
 179 0062 0223     		mov	r3, #2
 180 0064 081C     		mov	r0, r1
 181 0066 111C     		mov	r1, r2
 182 0068 1A1C     		mov	r2, r3
 183 006a FFF7FEFF 		bl	memcpy
 189:.\BLEApplications.c **** 	
 184              		.loc 1 189 0
 185 006e 244B     		ldr	r3, .L20+12
 186 0070 0122     		mov	r2, #1
 187 0072 1A70     		strb	r2, [r3]
ARM GAS  C:\Users\owono\AppData\Local\Temp\cceR3g3U.s 			page 9


 191:.\BLEApplications.c **** 			
 188              		.loc 1 191 0
 189 0074 3AE0     		b	.L4
 190              	.L11:
 196:.\BLEApplications.c **** 			
 191              		.loc 1 196 0
 192 0076 224B     		ldr	r3, .L20+12
 193 0078 0022     		mov	r2, #0
 194 007a 1A70     		strb	r2, [r3]
 200:.\BLEApplications.c **** 			
 195              		.loc 1 200 0
 196 007c 214B     		ldr	r3, .L20+16
 197 007e 0022     		mov	r2, #0
 198 0080 1A70     		strb	r2, [r3]
 203:.\BLEApplications.c **** 			UpdateNotificationCCCD();
 199              		.loc 1 203 0
 200 0082 214B     		ldr	r3, .L20+20
 201 0084 0122     		mov	r2, #1
 202 0086 1A70     		strb	r2, [r3]
 204:.\BLEApplications.c **** 			
 203              		.loc 1 204 0
 204 0088 FFF7FEFF 		bl	UpdateNotificationCCCD
 208:.\BLEApplications.c **** 			break;    
 205              		.loc 1 208 0
 206 008c 1F4B     		ldr	r3, .L20+24
 207 008e 0122     		mov	r2, #1
 208 0090 1A70     		strb	r2, [r3]
 209:.\BLEApplications.c ****             
 209              		.loc 1 209 0
 210 0092 2BE0     		b	.L4
 211              	.L14:
 216:.\BLEApplications.c **** 			
 212              		.loc 1 216 0
 213 0094 3B68     		ldr	r3, [r7]
 214 0096 FB60     		str	r3, [r7, #12]
 219:.\BLEApplications.c ****             {
 215              		.loc 1 219 0
 216 0098 FB68     		ldr	r3, [r7, #12]
 217 009a 9B89     		ldrh	r3, [r3, #12]
 218 009c 0F2B     		cmp	r3, #15
 219 009e 0DD1     		bne	.L18
 222:.\BLEApplications.c **** 				
 220              		.loc 1 222 0
 221 00a0 FB68     		ldr	r3, [r7, #12]
 222 00a2 5B68     		ldr	r3, [r3, #4]
 223 00a4 1A78     		ldrb	r2, [r3]
 224 00a6 174B     		ldr	r3, .L20+16
 225 00a8 1A70     		strb	r2, [r3]
 224:.\BLEApplications.c **** 				{
 226              		.loc 1 224 0
 227 00aa 164B     		ldr	r3, .L20+16
 228 00ac 1B78     		ldrb	r3, [r3]
 229 00ae 012B     		cmp	r3, #1
 230 00b0 01D1     		bne	.L19
 231:.\BLEApplications.c **** 				}
 231              		.loc 1 231 0
 232 00b2 FFF7FEFF 		bl	UpdateConnectionParam
ARM GAS  C:\Users\owono\AppData\Local\Temp\cceR3g3U.s 			page 10


 233              	.L19:
 234:.\BLEApplications.c **** 			}
 234              		.loc 1 234 0
 235 00b6 144B     		ldr	r3, .L20+20
 236 00b8 0122     		mov	r2, #1
 237 00ba 1A70     		strb	r2, [r3]
 238              	.L18:
 238:.\BLEApplications.c **** 			
 239              		.loc 1 238 0
 240 00bc 0F4B     		ldr	r3, .L20+8
 241 00be 1A78     		ldrb	r2, [r3]
 242 00c0 5B78     		ldrb	r3, [r3, #1]
 243 00c2 1B02     		lsl	r3, r3, #8
 244 00c4 1A43     		orr	r2, r3
 245 00c6 0023     		mov	r3, #0
 246 00c8 1204     		lsl	r2, r2, #16
 247 00ca 120C     		lsr	r2, r2, #16
 248 00cc 1B0C     		lsr	r3, r3, #16
 249 00ce 1B04     		lsl	r3, r3, #16
 250 00d0 1343     		orr	r3, r2
 251 00d2 181C     		mov	r0, r3
 252 00d4 FFF7FEFF 		bl	CyBle_GattsWriteRsp
 240:.\BLEApplications.c **** 			
 253              		.loc 1 240 0
 254 00d8 08E0     		b	.L4
 255              	.L15:
 244:.\BLEApplications.c ****             break;
 256              		.loc 1 244 0
 257 00da 0C4B     		ldr	r3, .L20+24
 258 00dc 0022     		mov	r2, #0
 259 00de 1A70     		strb	r2, [r3]
 245:.\BLEApplications.c **** 		
 260              		.loc 1 245 0
 261 00e0 04E0     		b	.L4
 262              	.L8:
 253:.\BLEApplications.c ****             break;
 263              		.loc 1 253 0
 264 00e2 3B68     		ldr	r3, [r7]
 265 00e4 1A78     		ldrb	r2, [r3]
 266 00e6 0A4B     		ldr	r3, .L20+28
 267 00e8 1A70     		strb	r2, [r3]
 254:.\BLEApplications.c **** 			
 268              		.loc 1 254 0
 269 00ea C046     		mov	r8, r8
 270              	.L4:
 259:.\BLEApplications.c **** 	} /* switch(event)*/
 260:.\BLEApplications.c **** }
 271              		.loc 1 260 0
 272 00ec BD46     		mov	sp, r7
 273 00ee 04B0     		add	sp, sp, #16
 274              		@ sp needed
 275 00f0 80BD     		pop	{r7, pc}
 276              	.L21:
 277 00f2 C046     		.align	2
 278              	.L20:
 279 00f4 00000000 		.word	restartAdvertisement
 280 00f8 00000000 		.word	cyBle_state
ARM GAS  C:\Users\owono\AppData\Local\Temp\cceR3g3U.s 			page 11


 281 00fc 00000000 		.word	connectionHandle
 282 0100 00000000 		.word	deviceConnected
 283 0104 00000000 		.word	startNotification
 284 0108 00000000 		.word	updateNotificationCCCAttribute
 285 010c 00000000 		.word	isConnectionUpdateRequested
 286 0110 00000000 		.word	busyStatus
 287              		.cfi_endproc
 288              	.LFE38:
 289              		.size	CustomEventHandler, .-CustomEventHandler
 290              		.section	.text.SendDataOverFreqCounterNotification,"ax",%progbits
 291              		.align	2
 292              		.global	SendDataOverFreqCounterNotification
 293              		.code	16
 294              		.thumb_func
 295              		.type	SendDataOverFreqCounterNotification, %function
 296              	SendDataOverFreqCounterNotification:
 297              	.LFB39:
 261:.\BLEApplications.c **** 
 262:.\BLEApplications.c **** /*******************************************************************************
 263:.\BLEApplications.c **** * Function Name: SendDataOverFreqCounterNotification
 264:.\BLEApplications.c **** ********************************************************************************
 265:.\BLEApplications.c **** * Summary:
 266:.\BLEApplications.c **** *   Update the data handle for notification and report it to BLE so that
 267:.\BLEApplications.c **** *	data can be sent over notifications
 268:.\BLEApplications.c **** *
 269:.\BLEApplications.c **** * Parameters:
 270:.\BLEApplications.c **** *  Frequency_Ptr: Pointer to the first byte of the array where frequency value 
 271:.\BLEApplications.c **** *  is stored.
 272:.\BLEApplications.c **** *
 273:.\BLEApplications.c **** * Return:
 274:.\BLEApplications.c **** *  void
 275:.\BLEApplications.c **** *
 276:.\BLEApplications.c **** *******************************************************************************/
 277:.\BLEApplications.c **** void SendDataOverFreqCounterNotification(uint8* Frequency_Ptr)
 278:.\BLEApplications.c **** {
 298              		.loc 1 278 0
 299              		.cfi_startproc
 300 0000 80B5     		push	{r7, lr}
 301              		.cfi_def_cfa_offset 8
 302              		.cfi_offset 7, -8
 303              		.cfi_offset 14, -4
 304 0002 86B0     		sub	sp, sp, #24
 305              		.cfi_def_cfa_offset 32
 306 0004 00AF     		add	r7, sp, #0
 307              		.cfi_def_cfa_register 7
 308 0006 7860     		str	r0, [r7, #4]
 279:.\BLEApplications.c **** 	/* 'notificationHandle' is handle to store notification data parameters */
 280:.\BLEApplications.c **** 	CYBLE_GATTS_HANDLE_VALUE_NTF_T		notificationHandle; 
 281:.\BLEApplications.c **** 	
 282:.\BLEApplications.c **** 	/* If stack is not busy, then send the notification */
 283:.\BLEApplications.c **** 	if(busyStatus == CYBLE_STACK_STATE_FREE)
 309              		.loc 1 283 0
 310 0008 114B     		ldr	r3, .L24
 311 000a 1B78     		ldrb	r3, [r3]
 312 000c 002B     		cmp	r3, #0
 313 000e 1BD1     		bne	.L22
 284:.\BLEApplications.c **** 	{
ARM GAS  C:\Users\owono\AppData\Local\Temp\cceR3g3U.s 			page 12


 285:.\BLEApplications.c **** 		/* Update Notification handle with frequency data*/
 286:.\BLEApplications.c **** 		notificationHandle.attrHandle = CYBLE_PSOC4_FREQ_MEASUREMENT_FREQ_MEASUREMENT_CHAR_HANDLE;				
 314              		.loc 1 286 0
 315 0010 0C23     		mov	r3, #12
 316 0012 FB18     		add	r3, r7, r3
 317 0014 0E22     		mov	r2, #14
 318 0016 1A81     		strh	r2, [r3, #8]
 287:.\BLEApplications.c **** 		notificationHandle.value.val = Frequency_Ptr;
 319              		.loc 1 287 0
 320 0018 0C23     		mov	r3, #12
 321 001a FB18     		add	r3, r7, r3
 322 001c 7A68     		ldr	r2, [r7, #4]
 323 001e 1A60     		str	r2, [r3]
 288:.\BLEApplications.c **** 		notificationHandle.value.len = FREQUENCY_NOTIFICATION_DATA_LEN;
 324              		.loc 1 288 0
 325 0020 0C23     		mov	r3, #12
 326 0022 FB18     		add	r3, r7, r3
 327 0024 0A22     		mov	r2, #10
 328 0026 9A80     		strh	r2, [r3, #4]
 289:.\BLEApplications.c **** 		
 290:.\BLEApplications.c **** 		/* Report data to BLE component for sending data by notifications*/
 291:.\BLEApplications.c **** 		CyBle_GattsNotification(connectionHandle,&notificationHandle);
 329              		.loc 1 291 0
 330 0028 0A4B     		ldr	r3, .L24+4
 331 002a 0C22     		mov	r2, #12
 332 002c B918     		add	r1, r7, r2
 333 002e 1A78     		ldrb	r2, [r3]
 334 0030 5B78     		ldrb	r3, [r3, #1]
 335 0032 1B02     		lsl	r3, r3, #8
 336 0034 1A43     		orr	r2, r3
 337 0036 0023     		mov	r3, #0
 338 0038 1204     		lsl	r2, r2, #16
 339 003a 120C     		lsr	r2, r2, #16
 340 003c 1B0C     		lsr	r3, r3, #16
 341 003e 1B04     		lsl	r3, r3, #16
 342 0040 1343     		orr	r3, r2
 343 0042 181C     		mov	r0, r3
 344 0044 FFF7FEFF 		bl	CyBle_GattsNotification
 345              	.L22:
 292:.\BLEApplications.c **** 	}
 293:.\BLEApplications.c **** }
 346              		.loc 1 293 0
 347 0048 BD46     		mov	sp, r7
 348 004a 06B0     		add	sp, sp, #24
 349              		@ sp needed
 350 004c 80BD     		pop	{r7, pc}
 351              	.L25:
 352 004e C046     		.align	2
 353              	.L24:
 354 0050 00000000 		.word	busyStatus
 355 0054 00000000 		.word	connectionHandle
 356              		.cfi_endproc
 357              	.LFE39:
 358              		.size	SendDataOverFreqCounterNotification, .-SendDataOverFreqCounterNotification
 359              		.section	.text.UpdateConnectionParam,"ax",%progbits
 360              		.align	2
 361              		.global	UpdateConnectionParam
ARM GAS  C:\Users\owono\AppData\Local\Temp\cceR3g3U.s 			page 13


 362              		.code	16
 363              		.thumb_func
 364              		.type	UpdateConnectionParam, %function
 365              	UpdateConnectionParam:
 366              	.LFB40:
 294:.\BLEApplications.c **** 
 295:.\BLEApplications.c **** /*******************************************************************************
 296:.\BLEApplications.c **** * Function Name: UpdateConnectionParam
 297:.\BLEApplications.c **** ********************************************************************************
 298:.\BLEApplications.c **** * Summary:
 299:.\BLEApplications.c **** *  Send the Connection Update Request to Client device after connection 
 300:.\BLEApplications.c **** *  and modify the connection interval for low power operation.
 301:.\BLEApplications.c **** *
 302:.\BLEApplications.c **** * Parameters:
 303:.\BLEApplications.c **** *  void
 304:.\BLEApplications.c **** *
 305:.\BLEApplications.c **** * Return:
 306:.\BLEApplications.c **** *  void
 307:.\BLEApplications.c **** *
 308:.\BLEApplications.c **** *******************************************************************************/
 309:.\BLEApplications.c **** void UpdateConnectionParam(void)
 310:.\BLEApplications.c **** {
 367              		.loc 1 310 0
 368              		.cfi_startproc
 369 0000 80B5     		push	{r7, lr}
 370              		.cfi_def_cfa_offset 8
 371              		.cfi_offset 7, -8
 372              		.cfi_offset 14, -4
 373 0002 00AF     		add	r7, sp, #0
 374              		.cfi_def_cfa_register 7
 311:.\BLEApplications.c **** 	/* If device is connected and Update connection parameter not updated yet,
 312:.\BLEApplications.c **** 	* then send the Connection Parameter Update request to Client. */
 313:.\BLEApplications.c ****     if(deviceConnected && isConnectionUpdateRequested)
 375              		.loc 1 313 0
 376 0004 094B     		ldr	r3, .L28
 377 0006 1B78     		ldrb	r3, [r3]
 378 0008 002B     		cmp	r3, #0
 379 000a 0DD0     		beq	.L26
 380              		.loc 1 313 0 is_stmt 0 discriminator 1
 381 000c 084B     		ldr	r3, .L28+4
 382 000e 1B78     		ldrb	r3, [r3]
 383 0010 002B     		cmp	r3, #0
 384 0012 09D0     		beq	.L26
 314:.\BLEApplications.c **** 	{
 315:.\BLEApplications.c **** 		/* Reset the flag to indicate that connection Update request has been sent */
 316:.\BLEApplications.c **** 		isConnectionUpdateRequested = FALSE;
 385              		.loc 1 316 0 is_stmt 1
 386 0014 064B     		ldr	r3, .L28+4
 387 0016 0022     		mov	r2, #0
 388 0018 1A70     		strb	r2, [r3]
 317:.\BLEApplications.c **** 		
 318:.\BLEApplications.c **** 		/* Send Connection Update request with set Parameter */
 319:.\BLEApplications.c **** 		CyBle_L2capLeConnectionParamUpdateRequest(connectionHandle.bdHandle, &ConnectionParam);
 389              		.loc 1 319 0
 390 001a 064B     		ldr	r3, .L28+8
 391 001c 1A78     		ldrb	r2, [r3]
 392 001e 064B     		ldr	r3, .L28+12
ARM GAS  C:\Users\owono\AppData\Local\Temp\cceR3g3U.s 			page 14


 393 0020 101C     		mov	r0, r2
 394 0022 191C     		mov	r1, r3
 395 0024 FFF7FEFF 		bl	CyBle_L2capLeConnectionParamUpdateRequest
 396              	.L26:
 320:.\BLEApplications.c **** 	}
 321:.\BLEApplications.c **** }
 397              		.loc 1 321 0
 398 0028 BD46     		mov	sp, r7
 399              		@ sp needed
 400 002a 80BD     		pop	{r7, pc}
 401              	.L29:
 402              		.align	2
 403              	.L28:
 404 002c 00000000 		.word	deviceConnected
 405 0030 00000000 		.word	isConnectionUpdateRequested
 406 0034 00000000 		.word	connectionHandle
 407 0038 04000000 		.word	ConnectionParam
 408              		.cfi_endproc
 409              	.LFE40:
 410              		.size	UpdateConnectionParam, .-UpdateConnectionParam
 411              		.section	.text.UpdateNotificationCCCD,"ax",%progbits
 412              		.align	2
 413              		.global	UpdateNotificationCCCD
 414              		.code	16
 415              		.thumb_func
 416              		.type	UpdateNotificationCCCD, %function
 417              	UpdateNotificationCCCD:
 418              	.LFB41:
 322:.\BLEApplications.c **** 
 323:.\BLEApplications.c **** /*******************************************************************************
 324:.\BLEApplications.c **** * Function Name: UpdateNotificationCCCD
 325:.\BLEApplications.c **** ********************************************************************************
 326:.\BLEApplications.c **** * Summary:
 327:.\BLEApplications.c **** *  Update the data handle for notification status and report it to BLE 
 328:.\BLEApplications.c **** *  component so that it can be read by Central device.
 329:.\BLEApplications.c **** *
 330:.\BLEApplications.c **** * Parameters:
 331:.\BLEApplications.c **** *  void
 332:.\BLEApplications.c **** *
 333:.\BLEApplications.c **** * Return:
 334:.\BLEApplications.c **** *  void
 335:.\BLEApplications.c **** *
 336:.\BLEApplications.c **** *******************************************************************************/
 337:.\BLEApplications.c **** void UpdateNotificationCCCD(void)
 338:.\BLEApplications.c **** {
 419              		.loc 1 338 0
 420              		.cfi_startproc
 421 0000 80B5     		push	{r7, lr}
 422              		.cfi_def_cfa_offset 8
 423              		.cfi_offset 7, -8
 424              		.cfi_offset 14, -4
 425 0002 84B0     		sub	sp, sp, #16
 426              		.cfi_def_cfa_offset 24
 427 0004 00AF     		add	r7, sp, #0
 428              		.cfi_def_cfa_register 7
 339:.\BLEApplications.c **** 	/* Local variable to store the current CCCD value */
 340:.\BLEApplications.c **** 	uint8 CCCDvalue[2];
ARM GAS  C:\Users\owono\AppData\Local\Temp\cceR3g3U.s 			page 15


 341:.\BLEApplications.c **** 	
 342:.\BLEApplications.c **** 	/* Handle value to update the CCCD */
 343:.\BLEApplications.c **** 	CYBLE_GATT_HANDLE_VALUE_PAIR_T notificationCCCDhandle;
 344:.\BLEApplications.c **** 
 345:.\BLEApplications.c **** 	/* Update notification attribute only when there has been change */
 346:.\BLEApplications.c **** 	if(updateNotificationCCCAttribute)
 429              		.loc 1 346 0
 430 0006 124B     		ldr	r3, .L32
 431 0008 1B78     		ldrb	r3, [r3]
 432 000a 002B     		cmp	r3, #0
 433 000c 1DD0     		beq	.L30
 347:.\BLEApplications.c **** 	{
 348:.\BLEApplications.c **** 		updateNotificationCCCAttribute = FALSE;
 434              		.loc 1 348 0
 435 000e 104B     		ldr	r3, .L32
 436 0010 0022     		mov	r2, #0
 437 0012 1A70     		strb	r2, [r3]
 349:.\BLEApplications.c **** 	
 350:.\BLEApplications.c **** 		/* Write the present notification status to the local variable */
 351:.\BLEApplications.c **** 		CCCDvalue[0] = startNotification;
 438              		.loc 1 351 0
 439 0014 0F4B     		ldr	r3, .L32+4
 440 0016 1A78     		ldrb	r2, [r3]
 441 0018 0C23     		mov	r3, #12
 442 001a FB18     		add	r3, r7, r3
 443 001c 1A70     		strb	r2, [r3]
 352:.\BLEApplications.c **** 		CCCDvalue[1] = 0x00;
 444              		.loc 1 352 0
 445 001e 0C23     		mov	r3, #12
 446 0020 FB18     		add	r3, r7, r3
 447 0022 0022     		mov	r2, #0
 448 0024 5A70     		strb	r2, [r3, #1]
 353:.\BLEApplications.c **** 		
 354:.\BLEApplications.c **** 		/* Update CCCD handle with notification status data*/
 355:.\BLEApplications.c **** 		notificationCCCDhandle.attrHandle = CYBLE_PSOC4_FREQ_MEASUREMENT_FREQ_MEASUREMENT_CLIENT_CHARACTE
 449              		.loc 1 355 0
 450 0026 3B1C     		mov	r3, r7
 451 0028 0F22     		mov	r2, #15
 452 002a 1A81     		strh	r2, [r3, #8]
 356:.\BLEApplications.c **** 		notificationCCCDhandle.value.val = CCCDvalue;
 453              		.loc 1 356 0
 454 002c 3B1C     		mov	r3, r7
 455 002e 0C22     		mov	r2, #12
 456 0030 BA18     		add	r2, r7, r2
 457 0032 1A60     		str	r2, [r3]
 357:.\BLEApplications.c **** 		notificationCCCDhandle.value.len = CCC_DATA_LEN;
 458              		.loc 1 357 0
 459 0034 3B1C     		mov	r3, r7
 460 0036 0222     		mov	r2, #2
 461 0038 9A80     		strh	r2, [r3, #4]
 358:.\BLEApplications.c **** 		
 359:.\BLEApplications.c **** 		/* Report data to BLE component for sending data when read by Central device */
 360:.\BLEApplications.c **** 		CyBle_GattsWriteAttributeValue(&notificationCCCDhandle, ZERO, &connectionHandle, CYBLE_GATT_DB_LO
 462              		.loc 1 360 0
 463 003a 3A1C     		mov	r2, r7
 464 003c 064B     		ldr	r3, .L32+8
 465 003e 101C     		mov	r0, r2
ARM GAS  C:\Users\owono\AppData\Local\Temp\cceR3g3U.s 			page 16


 466 0040 0021     		mov	r1, #0
 467 0042 1A1C     		mov	r2, r3
 468 0044 0023     		mov	r3, #0
 469 0046 FFF7FEFF 		bl	CyBle_GattsWriteAttributeValue
 470              	.L30:
 361:.\BLEApplications.c **** 	}	
 362:.\BLEApplications.c **** }
 471              		.loc 1 362 0
 472 004a BD46     		mov	sp, r7
 473 004c 04B0     		add	sp, sp, #16
 474              		@ sp needed
 475 004e 80BD     		pop	{r7, pc}
 476              	.L33:
 477              		.align	2
 478              	.L32:
 479 0050 00000000 		.word	updateNotificationCCCAttribute
 480 0054 00000000 		.word	startNotification
 481 0058 00000000 		.word	connectionHandle
 482              		.cfi_endproc
 483              	.LFE41:
 484              		.size	UpdateNotificationCCCD, .-UpdateNotificationCCCD
 485              		.section	.text.HandleStatusLED,"ax",%progbits
 486              		.align	2
 487              		.global	HandleStatusLED
 488              		.code	16
 489              		.thumb_func
 490              		.type	HandleStatusLED, %function
 491              	HandleStatusLED:
 492              	.LFB42:
 363:.\BLEApplications.c **** 
 364:.\BLEApplications.c **** /*******************************************************************************
 365:.\BLEApplications.c **** * Function Name: HandleStatusLED
 366:.\BLEApplications.c **** ********************************************************************************
 367:.\BLEApplications.c **** * Summary:
 368:.\BLEApplications.c **** *  Handle LED status, such as blinking, ON or OFF depending on BLE state.
 369:.\BLEApplications.c **** *
 370:.\BLEApplications.c **** * Parameters:
 371:.\BLEApplications.c **** *  void
 372:.\BLEApplications.c **** *
 373:.\BLEApplications.c **** * Return:
 374:.\BLEApplications.c **** *  void
 375:.\BLEApplications.c **** *
 376:.\BLEApplications.c **** *******************************************************************************/
 377:.\BLEApplications.c **** void HandleStatusLED(void)
 378:.\BLEApplications.c **** {
 493              		.loc 1 378 0
 494              		.cfi_startproc
 495 0000 80B5     		push	{r7, lr}
 496              		.cfi_def_cfa_offset 8
 497              		.cfi_offset 7, -8
 498              		.cfi_offset 14, -4
 499 0002 00AF     		add	r7, sp, #0
 500              		.cfi_def_cfa_register 7
 379:.\BLEApplications.c **** 	/* Local static counter to handle the periodic toggling of LED or keeping LED ON
 380:.\BLEApplications.c **** 	* for some time. */
 381:.\BLEApplications.c **** 	static uint32 led_counter = TRUE;
 382:.\BLEApplications.c **** 	
ARM GAS  C:\Users\owono\AppData\Local\Temp\cceR3g3U.s 			page 17


 383:.\BLEApplications.c **** 	/* Local static variable that stores the last BLE state in which firmware was */
 384:.\BLEApplications.c **** 	static uint8 state = 0xFF;
 385:.\BLEApplications.c **** 	
 386:.\BLEApplications.c **** 	if(state != CyBle_GetState())
 501              		.loc 1 386 0
 502 0004 234B     		ldr	r3, .L43
 503 0006 1A78     		ldrb	r2, [r3]
 504 0008 234B     		ldr	r3, .L43+4
 505 000a 1B78     		ldrb	r3, [r3]
 506 000c 9A42     		cmp	r2, r3
 507 000e 06D0     		beq	.L35
 387:.\BLEApplications.c **** 	{
 388:.\BLEApplications.c **** 		/* If the present BLE state is different from the new BLE state reset the local counter */
 389:.\BLEApplications.c **** 				
 390:.\BLEApplications.c **** 		if(CyBle_GetState() == CYBLE_STATE_ADVERTISING)
 508              		.loc 1 390 0
 509 0010 214B     		ldr	r3, .L43+4
 510 0012 1B78     		ldrb	r3, [r3]
 511 0014 032B     		cmp	r3, #3
 512 0016 02D1     		bne	.L35
 391:.\BLEApplications.c **** 		{
 392:.\BLEApplications.c **** 			led_counter = TRUE;
 513              		.loc 1 392 0
 514 0018 204B     		ldr	r3, .L43+8
 515 001a 0122     		mov	r2, #1
 516 001c 1A60     		str	r2, [r3]
 517              	.L35:
 393:.\BLEApplications.c **** 		}
 394:.\BLEApplications.c **** 	}
 395:.\BLEApplications.c **** 	
 396:.\BLEApplications.c **** 	/* Store the new BLE state into the present state variable */
 397:.\BLEApplications.c **** 	state = CyBle_GetState();
 518              		.loc 1 397 0
 519 001e 1E4B     		ldr	r3, .L43+4
 520 0020 1A78     		ldrb	r2, [r3]
 521 0022 1C4B     		ldr	r3, .L43
 522 0024 1A70     		strb	r2, [r3]
 398:.\BLEApplications.c **** 		
 399:.\BLEApplications.c **** 	switch(state)
 523              		.loc 1 399 0
 524 0026 1B4B     		ldr	r3, .L43
 525 0028 1B78     		ldrb	r3, [r3]
 526 002a 032B     		cmp	r3, #3
 527 002c 08D0     		beq	.L37
 528 002e 042B     		cmp	r3, #4
 529 0030 26D0     		beq	.L38
 530 0032 022B     		cmp	r3, #2
 531 0034 00D0     		beq	.L39
 400:.\BLEApplications.c **** 	{
 401:.\BLEApplications.c **** 		case CYBLE_STATE_CONNECTED:
 402:.\BLEApplications.c **** 				/* Set the drive mode of LED to Strong to allow driving the LED */
 403:.\BLEApplications.c **** 				Status_LED_SetDriveMode(Status_LED_DM_ALG_HIZ);
 404:.\BLEApplications.c **** 
 405:.\BLEApplications.c **** 		break;
 406:.\BLEApplications.c **** 		
 407:.\BLEApplications.c **** 		case CYBLE_STATE_ADVERTISING:
 408:.\BLEApplications.c **** 			/* If the present BLE state is advertising, toggle the LED
ARM GAS  C:\Users\owono\AppData\Local\Temp\cceR3g3U.s 			page 18


 409:.\BLEApplications.c **** 			* at pre-determined period to indicate advertising. */
 410:.\BLEApplications.c **** 			if((--led_counter) == FALSE)
 411:.\BLEApplications.c **** 			{
 412:.\BLEApplications.c **** 				Status_LED_SetDriveMode(Status_LED_DM_STRONG);
 413:.\BLEApplications.c **** 				
 414:.\BLEApplications.c **** 				if(Status_LED_Read() == LED_OFF)
 415:.\BLEApplications.c **** 				{
 416:.\BLEApplications.c **** 					Status_LED_Write(LED_ON);
 417:.\BLEApplications.c **** 					led_counter	= LED_ADV_BLINK_PERIOD_ON;
 418:.\BLEApplications.c **** 				}
 419:.\BLEApplications.c **** 				else
 420:.\BLEApplications.c **** 				{
 421:.\BLEApplications.c **** 					Status_LED_Write(LED_OFF);
 422:.\BLEApplications.c **** 					led_counter	= LED_ADV_BLINK_PERIOD_OFF;
 423:.\BLEApplications.c **** 				}
 424:.\BLEApplications.c **** 			}
 425:.\BLEApplications.c **** 		break;
 426:.\BLEApplications.c **** 		
 427:.\BLEApplications.c **** 		case CYBLE_STATE_DISCONNECTED:
 428:.\BLEApplications.c **** 			/* If the present BLE state is disconnected, switch off LED
 429:.\BLEApplications.c **** 			* and set the drive mode of LED to Hi-Z (Analog)*/
 430:.\BLEApplications.c **** 			Status_LED_Write(LED_OFF);
 431:.\BLEApplications.c **** 			Status_LED_SetDriveMode(Status_LED_DM_ALG_HIZ);
 432:.\BLEApplications.c **** 		break;
 433:.\BLEApplications.c **** 		
 434:.\BLEApplications.c **** 		default:
 435:.\BLEApplications.c **** 
 436:.\BLEApplications.c **** 		break;
 532              		.loc 1 436 0
 533 0036 2AE0     		b	.L34
 534              	.L39:
 403:.\BLEApplications.c **** 
 535              		.loc 1 403 0
 536 0038 0020     		mov	r0, #0
 537 003a FFF7FEFF 		bl	Status_LED_SetDriveMode
 405:.\BLEApplications.c **** 		
 538              		.loc 1 405 0
 539 003e 26E0     		b	.L34
 540              	.L37:
 410:.\BLEApplications.c **** 			{
 541              		.loc 1 410 0
 542 0040 164B     		ldr	r3, .L43+8
 543 0042 1B68     		ldr	r3, [r3]
 544 0044 5A1E     		sub	r2, r3, #1
 545 0046 154B     		ldr	r3, .L43+8
 546 0048 1A60     		str	r2, [r3]
 547 004a 144B     		ldr	r3, .L43+8
 548 004c 1B68     		ldr	r3, [r3]
 549 004e 002B     		cmp	r3, #0
 550 0050 15D1     		bne	.L41
 412:.\BLEApplications.c **** 				
 551              		.loc 1 412 0
 552 0052 0620     		mov	r0, #6
 553 0054 FFF7FEFF 		bl	Status_LED_SetDriveMode
 414:.\BLEApplications.c **** 				{
 554              		.loc 1 414 0
 555 0058 FFF7FEFF 		bl	Status_LED_Read
ARM GAS  C:\Users\owono\AppData\Local\Temp\cceR3g3U.s 			page 19


 556 005c 031E     		sub	r3, r0, #0
 557 005e 012B     		cmp	r3, #1
 558 0060 06D1     		bne	.L42
 416:.\BLEApplications.c **** 					led_counter	= LED_ADV_BLINK_PERIOD_ON;
 559              		.loc 1 416 0
 560 0062 0020     		mov	r0, #0
 561 0064 FFF7FEFF 		bl	Status_LED_Write
 417:.\BLEApplications.c **** 				}
 562              		.loc 1 417 0
 563 0068 0C4B     		ldr	r3, .L43+8
 564 006a 0522     		mov	r2, #5
 565 006c 1A60     		str	r2, [r3]
 566 006e 06E0     		b	.L41
 567              	.L42:
 421:.\BLEApplications.c **** 					led_counter	= LED_ADV_BLINK_PERIOD_OFF;
 568              		.loc 1 421 0
 569 0070 0120     		mov	r0, #1
 570 0072 FFF7FEFF 		bl	Status_LED_Write
 422:.\BLEApplications.c **** 				}
 571              		.loc 1 422 0
 572 0076 094B     		ldr	r3, .L43+8
 573 0078 1422     		mov	r2, #20
 574 007a 1A60     		str	r2, [r3]
 425:.\BLEApplications.c **** 		
 575              		.loc 1 425 0
 576 007c 07E0     		b	.L34
 577              	.L41:
 578 007e 06E0     		b	.L34
 579              	.L38:
 430:.\BLEApplications.c **** 			Status_LED_SetDriveMode(Status_LED_DM_ALG_HIZ);
 580              		.loc 1 430 0
 581 0080 0120     		mov	r0, #1
 582 0082 FFF7FEFF 		bl	Status_LED_Write
 431:.\BLEApplications.c **** 		break;
 583              		.loc 1 431 0
 584 0086 0020     		mov	r0, #0
 585 0088 FFF7FEFF 		bl	Status_LED_SetDriveMode
 432:.\BLEApplications.c **** 		
 586              		.loc 1 432 0
 587 008c C046     		mov	r8, r8
 588              	.L34:
 437:.\BLEApplications.c **** 	}
 438:.\BLEApplications.c **** }
 589              		.loc 1 438 0
 590 008e BD46     		mov	sp, r7
 591              		@ sp needed
 592 0090 80BD     		pop	{r7, pc}
 593              	.L44:
 594 0092 C046     		.align	2
 595              	.L43:
 596 0094 0C000000 		.word	state.7633
 597 0098 00000000 		.word	cyBle_state
 598 009c 10000000 		.word	led_counter.7632
 599              		.cfi_endproc
 600              	.LFE42:
 601              		.size	HandleStatusLED, .-HandleStatusLED
 602              		.data
ARM GAS  C:\Users\owono\AppData\Local\Temp\cceR3g3U.s 			page 20


 603              		.type	state.7633, %object
 604              		.size	state.7633, 1
 605              	state.7633:
 606 000c FF       		.byte	-1
 607 000d 000000   		.align	2
 608              		.type	led_counter.7632, %object
 609              		.size	led_counter.7632, 4
 610              	led_counter.7632:
 611 0010 01000000 		.word	1
 612              		.text
 613              	.Letext0:
 614              		.file 2 "Generated_Source\\PSoC4/cytypes.h"
 615              		.file 3 "Generated_Source\\PSoC4/BLE_StackGap.h"
 616              		.file 4 "Generated_Source\\PSoC4/BLE_StackGatt.h"
 617              		.file 5 "Generated_Source\\PSoC4/BLE_StackGattServer.h"
 618              		.file 6 "Generated_Source\\PSoC4/BLE_Stack.h"
 619              		.file 7 "Generated_Source\\PSoC4/BLE_eventHandler.h"