ARM GAS  C:\Users\owono\AppData\Local\Temp\ccAqdqgQ.s 			page 1


   1              		.cpu cortex-m0
   2              		.fpu softvfp
   3              		.eabi_attribute 20, 1
   4              		.eabi_attribute 21, 1
   5              		.eabi_attribute 23, 3
   6              		.eabi_attribute 24, 1
   7              		.eabi_attribute 25, 1
   8              		.eabi_attribute 26, 1
   9              		.eabi_attribute 30, 6
  10              		.eabi_attribute 34, 0
  11              		.eabi_attribute 18, 4
  12              		.code	16
  13              		.file	"Communication.c"
  14              		.text
  15              	.Ltext0:
  16              		.cfi_sections	.debug_frame
  17              		.section	.text.UART_SendDebugData,"ax",%progbits
  18              		.align	2
  19              		.global	UART_SendDebugData
  20              		.code	16
  21              		.thumb_func
  22              		.type	UART_SendDebugData, %function
  23              	UART_SendDebugData:
  24              	.LFB37:
  25              		.file 1 ".\\Communication.c"
   1:.\Communication.c **** /***************************************************************************//**
   2:.\Communication.c **** * @file    Communication.c
   3:.\Communication.c **** * @version 1.0
   4:.\Communication.c **** * @author  Chethan (dche@cypress.com)
   5:.\Communication.c **** *
   6:.\Communication.c **** * @par Description
   7:.\Communication.c **** *   This file contains the source code to the APIs for transmitting project's 
   8:.\Communication.c **** *   debug data via UART.
   9:.\Communication.c **** *
  10:.\Communication.c **** * @par Notes
  11:.\Communication.c **** *	None
  12:.\Communication.c **** *
  13:.\Communication.c **** * @par Hardware Dependency
  14:.\Communication.c **** *    1. CY8CKIT-042 BLE Pioneer Kit
  15:.\Communication.c **** *
  16:.\Communication.c **** * @par References
  17:.\Communication.c **** *    1. 001-32359: AN2283 "PSoC 1 Measuring Frequency"
  18:.\Communication.c **** *
  19:.\Communication.c **** * @par Code Tested With
  20:.\Communication.c **** *    1. PSoC Creator  3.1 SP2 (3.1.0.2177)
  21:.\Communication.c **** *    2. GCC 4.8.4
  22:.\Communication.c **** *
  23:.\Communication.c **** **//****************************************************************************
  24:.\Communication.c **** * Copyright (2015), Cypress Semiconductor Corporation.
  25:.\Communication.c **** ********************************************************************************
  26:.\Communication.c **** * All rights reserved. 
  27:.\Communication.c **** * This software, including source code, documentation and related 
  28:.\Communication.c **** * materials (“Software”), is owned by Cypress Semiconductor 
  29:.\Communication.c **** * Corporation (“Cypress”) and is protected by and subject to worldwide 
  30:.\Communication.c **** * patent protection (United States and foreign), United States copyright 
  31:.\Communication.c **** * laws and international treaty provisions. Therefore, you may use this 
  32:.\Communication.c **** * Software only as provided in the license agreement accompanying the 
ARM GAS  C:\Users\owono\AppData\Local\Temp\ccAqdqgQ.s 			page 2


  33:.\Communication.c **** * software package from which you obtained this Software (“EULA”). 
  34:.\Communication.c **** *
  35:.\Communication.c **** * If no EULA applies, Cypress hereby grants you a personal, non-exclusive, 
  36:.\Communication.c **** * non-transferable license to copy, modify and compile the Software source code
  37:.\Communication.c **** * solely for your use in connection with Cypress's integrated circuit products.
  38:.\Communication.c **** * Any reproduction, modification, translation, compilation, or representation
  39:.\Communication.c **** * of this Software except as specified above is prohibited without the express
  40:.\Communication.c **** * written permission of Cypress.
  41:.\Communication.c **** 
  42:.\Communication.c **** * Disclaimer: THIS SOFTWARE IS PROVIDED AS-IS, WITH NO WARRANTY OF ANY KIND,
  43:.\Communication.c **** * EXPRESS OR IMPLIED, INCLUDING, BUT NOT LIMITED TO, NONINFRINGEMENT, IMPLIED
  44:.\Communication.c **** * WARRANTIES OF MERCHANTABILITY AND FITNESS FOR A PARTICULAR PURPOSE.
  45:.\Communication.c **** * Cypress reserves the right to make changes to the Software without notice. 
  46:.\Communication.c **** * Cypress does not assume any liability arising out of the application or use 
  47:.\Communication.c **** * of the Software or any product or circuit described in the Software. Cypress
  48:.\Communication.c **** * does not authorize its products for use in any products where a malfunction
  49:.\Communication.c **** * or failure of the Cypress product may reasonably be expected to result in 
  50:.\Communication.c **** * significant property damage, injury or death (“High Risk Product”). By 
  51:.\Communication.c **** * including Cypress’s product in a High Risk Product, the manufacturer of such  
  52:.\Communication.c **** * system or application assumes all risk of such use and in doing so agrees to  
  53:.\Communication.c **** * indemnify Cypress against all liability. 
  54:.\Communication.c **** *******************************************************************************/
  55:.\Communication.c **** 
  56:.\Communication.c **** /*******************************************************************************
  57:.\Communication.c **** *   Included Headers
  58:.\Communication.c **** *******************************************************************************/
  59:.\Communication.c **** #include "main.h"
  60:.\Communication.c **** 
  61:.\Communication.c **** #if(UART_DEBUG_ENABLE)
  62:.\Communication.c **** /*******************************************************************************
  63:.\Communication.c **** * Function Name: UART_SendDebugData
  64:.\Communication.c **** ********************************************************************************
  65:.\Communication.c **** *
  66:.\Communication.c **** * Summary:
  67:.\Communication.c **** *  Function sends 32-bit count value to PC via UART communication
  68:.\Communication.c **** *
  69:.\Communication.c **** * Parameters:
  70:.\Communication.c **** *  CountValue: 32-bit count value to be sent to PC
  71:.\Communication.c **** *
  72:.\Communication.c **** * Return:
  73:.\Communication.c **** *  None
  74:.\Communication.c **** *
  75:.\Communication.c **** *******************************************************************************/
  76:.\Communication.c **** void UART_SendDebugData(uint32 CountValue)
  77:.\Communication.c **** {
  26              		.loc 1 77 0
  27              		.cfi_startproc
  28 0000 80B5     		push	{r7, lr}
  29              		.cfi_def_cfa_offset 8
  30              		.cfi_offset 7, -8
  31              		.cfi_offset 14, -4
  32 0002 82B0     		sub	sp, sp, #8
  33              		.cfi_def_cfa_offset 16
  34 0004 00AF     		add	r7, sp, #0
  35              		.cfi_def_cfa_register 7
  36 0006 7860     		str	r0, [r7, #4]
  78:.\Communication.c **** 	/* Send upper 16-bits of count */
ARM GAS  C:\Users\owono\AppData\Local\Temp\ccAqdqgQ.s 			page 3


  79:.\Communication.c **** 	UART_PutHexInt(HI16(CountValue));
  37              		.loc 1 79 0
  38 0008 7B68     		ldr	r3, [r7, #4]
  39 000a 1B0C     		lsr	r3, r3, #16
  40 000c 9BB2     		uxth	r3, r3
  41 000e 181C     		mov	r0, r3
  42 0010 FFF7FEFF 		bl	UART_PutHexInt
  80:.\Communication.c **** 	
  81:.\Communication.c **** 	/* Send lower 16-bits of count */
  82:.\Communication.c **** 	UART_PutHexInt(LO16(CountValue));
  43              		.loc 1 82 0
  44 0014 7B68     		ldr	r3, [r7, #4]
  45 0016 9BB2     		uxth	r3, r3
  46 0018 181C     		mov	r0, r3
  47 001a FFF7FEFF 		bl	UART_PutHexInt
  83:.\Communication.c **** }
  48              		.loc 1 83 0
  49 001e BD46     		mov	sp, r7
  50 0020 02B0     		add	sp, sp, #8
  51              		@ sp needed
  52 0022 80BD     		pop	{r7, pc}
  53              		.cfi_endproc
  54              	.LFE37:
  55              		.size	UART_SendDebugData, .-UART_SendDebugData
  56              		.section	.text.UART_PutHexByte,"ax",%progbits
  57              		.align	2
  58              		.global	UART_PutHexByte
  59              		.code	16
  60              		.thumb_func
  61              		.type	UART_PutHexByte, %function
  62              	UART_PutHexByte:
  63              	.LFB38:
  84:.\Communication.c **** 	
  85:.\Communication.c **** /*******************************************************************************
  86:.\Communication.c **** * Function Name: UART_PutHexByte
  87:.\Communication.c **** ********************************************************************************
  88:.\Communication.c **** *
  89:.\Communication.c **** * Summary:
  90:.\Communication.c **** *  Sends a byte of data in Hex representation (two characters, uppercase for A-F) 
  91:.\Communication.c **** *  via the Tx pin.
  92:.\Communication.c **** *
  93:.\Communication.c **** * Parameters:
  94:.\Communication.c **** *  TxHexByte: The byte to be converted to ASCII characters and sent via the Tx pin.
  95:.\Communication.c **** *
  96:.\Communication.c **** * Return:
  97:.\Communication.c **** *  None
  98:.\Communication.c **** *
  99:.\Communication.c **** *******************************************************************************/
 100:.\Communication.c **** void UART_PutHexByte(uint8 txHexByte) 
 101:.\Communication.c **** {
  64              		.loc 1 101 0
  65              		.cfi_startproc
  66 0000 80B5     		push	{r7, lr}
  67              		.cfi_def_cfa_offset 8
  68              		.cfi_offset 7, -8
  69              		.cfi_offset 14, -4
  70 0002 82B0     		sub	sp, sp, #8
ARM GAS  C:\Users\owono\AppData\Local\Temp\ccAqdqgQ.s 			page 4


  71              		.cfi_def_cfa_offset 16
  72 0004 00AF     		add	r7, sp, #0
  73              		.cfi_def_cfa_register 7
  74 0006 021C     		mov	r2, r0
  75 0008 FB1D     		add	r3, r7, #7
  76 000a 1A70     		strb	r2, [r3]
 102:.\Communication.c ****     static char8 const CYCODE SW_Tx_UART_hex[] = "0123456789ABCDEF";
 103:.\Communication.c ****     UART_UartPutChar((uint8) SW_Tx_UART_hex[txHexByte >> SW_Tx_UART_BYTE_UPPER_NIBBLE_SHIFT]);
  77              		.loc 1 103 0
  78 000c FB1D     		add	r3, r7, #7
  79 000e 1B78     		ldrb	r3, [r3]
  80 0010 1B09     		lsr	r3, r3, #4
  81 0012 DBB2     		uxtb	r3, r3
  82 0014 1A1C     		mov	r2, r3
  83 0016 084B     		ldr	r3, .L3
  84 0018 9B5C     		ldrb	r3, [r3, r2]
  85 001a 181C     		mov	r0, r3
  86 001c FFF7FEFF 		bl	UART_SpiUartWriteTxData
 104:.\Communication.c ****     UART_UartPutChar((uint8) SW_Tx_UART_hex[txHexByte & SW_Tx_UART_BYTE_LOWER_NIBBLE_MASK]);
  87              		.loc 1 104 0
  88 0020 FB1D     		add	r3, r7, #7
  89 0022 1B78     		ldrb	r3, [r3]
  90 0024 0F22     		mov	r2, #15
  91 0026 1340     		and	r3, r2
  92 0028 034A     		ldr	r2, .L3
  93 002a D35C     		ldrb	r3, [r2, r3]
  94 002c 181C     		mov	r0, r3
  95 002e FFF7FEFF 		bl	UART_SpiUartWriteTxData
 105:.\Communication.c **** }
  96              		.loc 1 105 0
  97 0032 BD46     		mov	sp, r7
  98 0034 02B0     		add	sp, sp, #8
  99              		@ sp needed
 100 0036 80BD     		pop	{r7, pc}
 101              	.L4:
 102              		.align	2
 103              	.L3:
 104 0038 00000000 		.word	SW_Tx_UART_hex.7597
 105              		.cfi_endproc
 106              	.LFE38:
 107              		.size	UART_PutHexByte, .-UART_PutHexByte
 108              		.section	.text.UART_PutHexInt,"ax",%progbits
 109              		.align	2
 110              		.global	UART_PutHexInt
 111              		.code	16
 112              		.thumb_func
 113              		.type	UART_PutHexInt, %function
 114              	UART_PutHexInt:
 115              	.LFB39:
 106:.\Communication.c **** 	
 107:.\Communication.c **** /*******************************************************************************
 108:.\Communication.c **** * Function Name: UART_PutHexInt
 109:.\Communication.c **** ********************************************************************************
 110:.\Communication.c **** *
 111:.\Communication.c **** * Summary:
 112:.\Communication.c **** *  Sends a 16-bit unsigned integer in Hex representation (four characters,
 113:.\Communication.c **** *  uppercase for A-F) via the Tx pin.
ARM GAS  C:\Users\owono\AppData\Local\Temp\ccAqdqgQ.s 			page 5


 114:.\Communication.c **** *
 115:.\Communication.c **** * Parameters:
 116:.\Communication.c **** *  TxHexInt: The uint16 to be converted to ASCII characters and sent via
 117:.\Communication.c **** *            the Tx pin.
 118:.\Communication.c **** *
 119:.\Communication.c **** * Return:
 120:.\Communication.c **** *  None
 121:.\Communication.c **** *
 122:.\Communication.c **** *******************************************************************************/
 123:.\Communication.c **** void UART_PutHexInt(uint16 txHexInt) 
 124:.\Communication.c **** {
 116              		.loc 1 124 0
 117              		.cfi_startproc
 118 0000 80B5     		push	{r7, lr}
 119              		.cfi_def_cfa_offset 8
 120              		.cfi_offset 7, -8
 121              		.cfi_offset 14, -4
 122 0002 82B0     		sub	sp, sp, #8
 123              		.cfi_def_cfa_offset 16
 124 0004 00AF     		add	r7, sp, #0
 125              		.cfi_def_cfa_register 7
 126 0006 021C     		mov	r2, r0
 127 0008 BB1D     		add	r3, r7, #6
 128 000a 1A80     		strh	r2, [r3]
 125:.\Communication.c ****     UART_PutHexByte((uint8)(txHexInt >> SW_Tx_UART_U16_UPPER_BYTE_SHIFT));
 129              		.loc 1 125 0
 130 000c BB1D     		add	r3, r7, #6
 131 000e 1B88     		ldrh	r3, [r3]
 132 0010 1B0A     		lsr	r3, r3, #8
 133 0012 9BB2     		uxth	r3, r3
 134 0014 DBB2     		uxtb	r3, r3
 135 0016 181C     		mov	r0, r3
 136 0018 FFF7FEFF 		bl	UART_PutHexByte
 126:.\Communication.c ****     UART_PutHexByte((uint8)(txHexInt & SW_Tx_UART_U16_LOWER_BYTE_MASK));
 137              		.loc 1 126 0
 138 001c BB1D     		add	r3, r7, #6
 139 001e 1B88     		ldrh	r3, [r3]
 140 0020 DBB2     		uxtb	r3, r3
 141 0022 181C     		mov	r0, r3
 142 0024 FFF7FEFF 		bl	UART_PutHexByte
 127:.\Communication.c **** }
 143              		.loc 1 127 0
 144 0028 BD46     		mov	sp, r7
 145 002a 02B0     		add	sp, sp, #8
 146              		@ sp needed
 147 002c 80BD     		pop	{r7, pc}
 148              		.cfi_endproc
 149              	.LFE39:
 150              		.size	UART_PutHexInt, .-UART_PutHexInt
 151 002e C046     		.section	.text.UART_PutCRLF,"ax",%progbits
 152              		.align	2
 153              		.global	UART_PutCRLF
 154              		.code	16
 155              		.thumb_func
 156              		.type	UART_PutCRLF, %function
 157              	UART_PutCRLF:
 158              	.LFB40:
ARM GAS  C:\Users\owono\AppData\Local\Temp\ccAqdqgQ.s 			page 6


 128:.\Communication.c **** 	
 129:.\Communication.c **** /*******************************************************************************
 130:.\Communication.c **** * Function Name: UART_PutCRLF
 131:.\Communication.c **** ********************************************************************************
 132:.\Communication.c **** *
 133:.\Communication.c **** * Summary:
 134:.\Communication.c **** *  Sends a carriage return (0x0D) and a line feed (0x0A) via the Tx pin.
 135:.\Communication.c **** *
 136:.\Communication.c **** * Parameters:
 137:.\Communication.c **** *  None
 138:.\Communication.c **** *
 139:.\Communication.c **** * Return:
 140:.\Communication.c **** *  None
 141:.\Communication.c **** *
 142:.\Communication.c **** *******************************************************************************/
 143:.\Communication.c **** void UART_PutCRLF(void) 
 144:.\Communication.c **** { 
 159              		.loc 1 144 0
 160              		.cfi_startproc
 161 0000 80B5     		push	{r7, lr}
 162              		.cfi_def_cfa_offset 8
 163              		.cfi_offset 7, -8
 164              		.cfi_offset 14, -4
 165 0002 00AF     		add	r7, sp, #0
 166              		.cfi_def_cfa_register 7
 145:.\Communication.c ****    UART_UartPutChar(0x0Du);
 167              		.loc 1 145 0
 168 0004 0D20     		mov	r0, #13
 169 0006 FFF7FEFF 		bl	UART_SpiUartWriteTxData
 146:.\Communication.c ****    UART_UartPutChar(0x0Au);
 170              		.loc 1 146 0
 171 000a 0A20     		mov	r0, #10
 172 000c FFF7FEFF 		bl	UART_SpiUartWriteTxData
 147:.\Communication.c **** }
 173              		.loc 1 147 0
 174 0010 BD46     		mov	sp, r7
 175              		@ sp needed
 176 0012 80BD     		pop	{r7, pc}
 177              		.cfi_endproc
 178              	.LFE40:
 179              		.size	UART_PutCRLF, .-UART_PutCRLF
 180              		.section	.rodata
 181              		.align	2
 182              		.type	SW_Tx_UART_hex.7597, %object
 183              		.size	SW_Tx_UART_hex.7597, 17
 184              	SW_Tx_UART_hex.7597:
 185 0000 30313233 		.ascii	"0123456789ABCDEF\000"
 185      34353637 
 185      38394142 
 185      43444546 
 185      00
 186 0011 000000   		.text
 187              	.Letext0:
 188              		.file 2 "Generated_Source\\PSoC4/cytypes.h"