ARM GAS  C:\Users\owono\AppData\Local\Temp\ccd0Z0VF.s 			page 1


   1              		.cpu cortex-m0
   2              		.fpu softvfp
   3              		.eabi_attribute 20, 1
   4              		.eabi_attribute 21, 1
   5              		.eabi_attribute 23, 3
   6              		.eabi_attribute 24, 1
   7              		.eabi_attribute 25, 1
   8              		.eabi_attribute 26, 1
   9              		.eabi_attribute 30, 6
  10              		.eabi_attribute 34, 0
  11              		.eabi_attribute 18, 4
  12              		.code	16
  13              		.file	"cyfitter_cfg.c"
  14              		.text
  15              	.Ltext0:
  16              		.cfi_sections	.debug_frame
  17              		.section	.text.CYMEMZERO,"ax",%progbits
  18              		.align	2
  19              		.code	16
  20              		.thumb_func
  21              		.type	CYMEMZERO, %function
  22              	CYMEMZERO:
  23              	.LFB2:
  24              		.file 1 ".\\Generated_Source\\PSoC4\\cyfitter_cfg.c"
   1:.\Generated_Source\PSoC4/cyfitter_cfg.c **** /*******************************************************************************
   2:.\Generated_Source\PSoC4/cyfitter_cfg.c **** * File Name: cyfitter_cfg.c
   3:.\Generated_Source\PSoC4/cyfitter_cfg.c **** * 
   4:.\Generated_Source\PSoC4/cyfitter_cfg.c **** * PSoC Creator  3.3 CP3
   5:.\Generated_Source\PSoC4/cyfitter_cfg.c **** *
   6:.\Generated_Source\PSoC4/cyfitter_cfg.c **** * Description:
   7:.\Generated_Source\PSoC4/cyfitter_cfg.c **** * This file contains device initialization code.
   8:.\Generated_Source\PSoC4/cyfitter_cfg.c **** * Except for the user defined sections in CyClockStartupError(), this file should not be modified.
   9:.\Generated_Source\PSoC4/cyfitter_cfg.c **** * This file is automatically generated by PSoC Creator.
  10:.\Generated_Source\PSoC4/cyfitter_cfg.c **** *
  11:.\Generated_Source\PSoC4/cyfitter_cfg.c **** ********************************************************************************
  12:.\Generated_Source\PSoC4/cyfitter_cfg.c **** * Copyright (c) 2007-2016 Cypress Semiconductor.  All rights reserved.
  13:.\Generated_Source\PSoC4/cyfitter_cfg.c **** * You may use this file only in accordance with the license, terms, conditions, 
  14:.\Generated_Source\PSoC4/cyfitter_cfg.c **** * disclaimers, and limitations in the end user license agreement accompanying 
  15:.\Generated_Source\PSoC4/cyfitter_cfg.c **** * the software package with which this file was provided.
  16:.\Generated_Source\PSoC4/cyfitter_cfg.c **** ********************************************************************************/
  17:.\Generated_Source\PSoC4/cyfitter_cfg.c **** 
  18:.\Generated_Source\PSoC4/cyfitter_cfg.c **** #include <string.h>
  19:.\Generated_Source\PSoC4/cyfitter_cfg.c **** #include "cytypes.h"
  20:.\Generated_Source\PSoC4/cyfitter_cfg.c **** #include "cydevice_trm.h"
  21:.\Generated_Source\PSoC4/cyfitter_cfg.c **** #include "cyfitter.h"
  22:.\Generated_Source\PSoC4/cyfitter_cfg.c **** #include "CyLib.h"
  23:.\Generated_Source\PSoC4/cyfitter_cfg.c **** #include "cyfitter_cfg.h"
  24:.\Generated_Source\PSoC4/cyfitter_cfg.c **** 
  25:.\Generated_Source\PSoC4/cyfitter_cfg.c **** #define CY_NEED_CYCLOCKSTARTUPERROR 1
  26:.\Generated_Source\PSoC4/cyfitter_cfg.c **** 
  27:.\Generated_Source\PSoC4/cyfitter_cfg.c **** 
  28:.\Generated_Source\PSoC4/cyfitter_cfg.c **** #if defined(__GNUC__) || defined(__ARMCC_VERSION)
  29:.\Generated_Source\PSoC4/cyfitter_cfg.c ****     #define CYPACKED 
  30:.\Generated_Source\PSoC4/cyfitter_cfg.c ****     #define CYPACKED_ATTR __attribute__ ((packed))
  31:.\Generated_Source\PSoC4/cyfitter_cfg.c ****     #define CYALIGNED __attribute__ ((aligned))
  32:.\Generated_Source\PSoC4/cyfitter_cfg.c ****     #define CY_CFG_UNUSED __attribute__ ((unused))
  33:.\Generated_Source\PSoC4/cyfitter_cfg.c ****     #ifndef CY_CFG_SECTION
ARM GAS  C:\Users\owono\AppData\Local\Temp\ccd0Z0VF.s 			page 2


  34:.\Generated_Source\PSoC4/cyfitter_cfg.c ****         #define CY_CFG_SECTION __attribute__ ((section(".psocinit")))
  35:.\Generated_Source\PSoC4/cyfitter_cfg.c ****     #endif
  36:.\Generated_Source\PSoC4/cyfitter_cfg.c ****     
  37:.\Generated_Source\PSoC4/cyfitter_cfg.c ****     #if defined(__ARMCC_VERSION)
  38:.\Generated_Source\PSoC4/cyfitter_cfg.c ****         #define CY_CFG_MEMORY_BARRIER() __memory_changed()
  39:.\Generated_Source\PSoC4/cyfitter_cfg.c ****     #else
  40:.\Generated_Source\PSoC4/cyfitter_cfg.c ****         #define CY_CFG_MEMORY_BARRIER() __sync_synchronize()
  41:.\Generated_Source\PSoC4/cyfitter_cfg.c ****     #endif
  42:.\Generated_Source\PSoC4/cyfitter_cfg.c ****     
  43:.\Generated_Source\PSoC4/cyfitter_cfg.c **** #elif defined(__ICCARM__)
  44:.\Generated_Source\PSoC4/cyfitter_cfg.c ****     #include <intrinsics.h>
  45:.\Generated_Source\PSoC4/cyfitter_cfg.c **** 
  46:.\Generated_Source\PSoC4/cyfitter_cfg.c ****     #define CYPACKED __packed
  47:.\Generated_Source\PSoC4/cyfitter_cfg.c ****     #define CYPACKED_ATTR 
  48:.\Generated_Source\PSoC4/cyfitter_cfg.c ****     #define CYALIGNED _Pragma("data_alignment=4")
  49:.\Generated_Source\PSoC4/cyfitter_cfg.c ****     #define CY_CFG_UNUSED _Pragma("diag_suppress=Pe177")
  50:.\Generated_Source\PSoC4/cyfitter_cfg.c ****     #define CY_CFG_SECTION _Pragma("location=\".psocinit\"")
  51:.\Generated_Source\PSoC4/cyfitter_cfg.c ****     
  52:.\Generated_Source\PSoC4/cyfitter_cfg.c ****     #define CY_CFG_MEMORY_BARRIER() __DMB()
  53:.\Generated_Source\PSoC4/cyfitter_cfg.c ****     
  54:.\Generated_Source\PSoC4/cyfitter_cfg.c **** #else
  55:.\Generated_Source\PSoC4/cyfitter_cfg.c ****     #error Unsupported toolchain
  56:.\Generated_Source\PSoC4/cyfitter_cfg.c **** #endif
  57:.\Generated_Source\PSoC4/cyfitter_cfg.c **** 
  58:.\Generated_Source\PSoC4/cyfitter_cfg.c **** 
  59:.\Generated_Source\PSoC4/cyfitter_cfg.c **** CY_CFG_UNUSED
  60:.\Generated_Source\PSoC4/cyfitter_cfg.c **** static void CYMEMZERO(void *s, size_t n);
  61:.\Generated_Source\PSoC4/cyfitter_cfg.c **** CY_CFG_UNUSED
  62:.\Generated_Source\PSoC4/cyfitter_cfg.c **** static void CYMEMZERO(void *s, size_t n)
  63:.\Generated_Source\PSoC4/cyfitter_cfg.c **** {
  25              		.loc 1 63 0
  26              		.cfi_startproc
  27 0000 80B5     		push	{r7, lr}
  28              		.cfi_def_cfa_offset 8
  29              		.cfi_offset 7, -8
  30              		.cfi_offset 14, -4
  31 0002 82B0     		sub	sp, sp, #8
  32              		.cfi_def_cfa_offset 16
  33 0004 00AF     		add	r7, sp, #0
  34              		.cfi_def_cfa_register 7
  35 0006 7860     		str	r0, [r7, #4]
  36 0008 3960     		str	r1, [r7]
  64:.\Generated_Source\PSoC4/cyfitter_cfg.c **** 	(void)memset(s, 0, n);
  37              		.loc 1 64 0
  38 000a 7A68     		ldr	r2, [r7, #4]
  39 000c 3B68     		ldr	r3, [r7]
  40 000e 101C     		mov	r0, r2
  41 0010 0021     		mov	r1, #0
  42 0012 1A1C     		mov	r2, r3
  43 0014 FFF7FEFF 		bl	memset
  65:.\Generated_Source\PSoC4/cyfitter_cfg.c **** }
  44              		.loc 1 65 0
  45 0018 BD46     		mov	sp, r7
  46 001a 02B0     		add	sp, sp, #8
  47              		@ sp needed
  48 001c 80BD     		pop	{r7, pc}
  49              		.cfi_endproc
ARM GAS  C:\Users\owono\AppData\Local\Temp\ccd0Z0VF.s 			page 3


  50              	.LFE2:
  51              		.size	CYMEMZERO, .-CYMEMZERO
  52 001e C046     		.section	.text.CYCONFIGCPY,"ax",%progbits
  53              		.align	2
  54              		.code	16
  55              		.thumb_func
  56              		.type	CYCONFIGCPY, %function
  57              	CYCONFIGCPY:
  58              	.LFB3:
  66:.\Generated_Source\PSoC4/cyfitter_cfg.c **** CY_CFG_UNUSED
  67:.\Generated_Source\PSoC4/cyfitter_cfg.c **** static void CYCONFIGCPY(void *dest, const void *src, size_t n);
  68:.\Generated_Source\PSoC4/cyfitter_cfg.c **** CY_CFG_UNUSED
  69:.\Generated_Source\PSoC4/cyfitter_cfg.c **** static void CYCONFIGCPY(void *dest, const void *src, size_t n)
  70:.\Generated_Source\PSoC4/cyfitter_cfg.c **** {
  59              		.loc 1 70 0
  60              		.cfi_startproc
  61 0000 80B5     		push	{r7, lr}
  62              		.cfi_def_cfa_offset 8
  63              		.cfi_offset 7, -8
  64              		.cfi_offset 14, -4
  65 0002 84B0     		sub	sp, sp, #16
  66              		.cfi_def_cfa_offset 24
  67 0004 00AF     		add	r7, sp, #0
  68              		.cfi_def_cfa_register 7
  69 0006 F860     		str	r0, [r7, #12]
  70 0008 B960     		str	r1, [r7, #8]
  71 000a 7A60     		str	r2, [r7, #4]
  71:.\Generated_Source\PSoC4/cyfitter_cfg.c **** 	(void)memcpy(dest, src, n);
  72              		.loc 1 71 0
  73 000c F968     		ldr	r1, [r7, #12]
  74 000e BA68     		ldr	r2, [r7, #8]
  75 0010 7B68     		ldr	r3, [r7, #4]
  76 0012 081C     		mov	r0, r1
  77 0014 111C     		mov	r1, r2
  78 0016 1A1C     		mov	r2, r3
  79 0018 FFF7FEFF 		bl	memcpy
  72:.\Generated_Source\PSoC4/cyfitter_cfg.c **** }
  80              		.loc 1 72 0
  81 001c BD46     		mov	sp, r7
  82 001e 04B0     		add	sp, sp, #16
  83              		@ sp needed
  84 0020 80BD     		pop	{r7, pc}
  85              		.cfi_endproc
  86              	.LFE3:
  87              		.size	CYCONFIGCPY, .-CYCONFIGCPY
  88 0022 C046     		.section	.text.CYCONFIGCPYCODE,"ax",%progbits
  89              		.align	2
  90              		.code	16
  91              		.thumb_func
  92              		.type	CYCONFIGCPYCODE, %function
  93              	CYCONFIGCPYCODE:
  94              	.LFB4:
  73:.\Generated_Source\PSoC4/cyfitter_cfg.c **** CY_CFG_UNUSED
  74:.\Generated_Source\PSoC4/cyfitter_cfg.c **** static void CYCONFIGCPYCODE(void *dest, const void *src, size_t n);
  75:.\Generated_Source\PSoC4/cyfitter_cfg.c **** CY_CFG_UNUSED
  76:.\Generated_Source\PSoC4/cyfitter_cfg.c **** static void CYCONFIGCPYCODE(void *dest, const void *src, size_t n)
  77:.\Generated_Source\PSoC4/cyfitter_cfg.c **** {
ARM GAS  C:\Users\owono\AppData\Local\Temp\ccd0Z0VF.s 			page 4


  95              		.loc 1 77 0
  96              		.cfi_startproc
  97 0000 80B5     		push	{r7, lr}
  98              		.cfi_def_cfa_offset 8
  99              		.cfi_offset 7, -8
 100              		.cfi_offset 14, -4
 101 0002 84B0     		sub	sp, sp, #16
 102              		.cfi_def_cfa_offset 24
 103 0004 00AF     		add	r7, sp, #0
 104              		.cfi_def_cfa_register 7
 105 0006 F860     		str	r0, [r7, #12]
 106 0008 B960     		str	r1, [r7, #8]
 107 000a 7A60     		str	r2, [r7, #4]
  78:.\Generated_Source\PSoC4/cyfitter_cfg.c **** 	(void)memcpy(dest, src, n);
 108              		.loc 1 78 0
 109 000c F968     		ldr	r1, [r7, #12]
 110 000e BA68     		ldr	r2, [r7, #8]
 111 0010 7B68     		ldr	r3, [r7, #4]
 112 0012 081C     		mov	r0, r1
 113 0014 111C     		mov	r1, r2
 114 0016 1A1C     		mov	r2, r3
 115 0018 FFF7FEFF 		bl	memcpy
  79:.\Generated_Source\PSoC4/cyfitter_cfg.c **** }
 116              		.loc 1 79 0
 117 001c BD46     		mov	sp, r7
 118 001e 04B0     		add	sp, sp, #16
 119              		@ sp needed
 120 0020 80BD     		pop	{r7, pc}
 121              		.cfi_endproc
 122              	.LFE4:
 123              		.size	CYCONFIGCPYCODE, .-CYCONFIGCPYCODE
 124 0022 C046     		.section	.text.CyClockStartupError,"ax",%progbits
 125              		.align	2
 126              		.code	16
 127              		.thumb_func
 128              		.type	CyClockStartupError, %function
 129              	CyClockStartupError:
 130              	.LFB5:
  80:.\Generated_Source\PSoC4/cyfitter_cfg.c **** 
  81:.\Generated_Source\PSoC4/cyfitter_cfg.c **** 
  82:.\Generated_Source\PSoC4/cyfitter_cfg.c **** 
  83:.\Generated_Source\PSoC4/cyfitter_cfg.c **** /* Clock startup error codes                                                   */
  84:.\Generated_Source\PSoC4/cyfitter_cfg.c **** #define CYCLOCKSTART_NO_ERROR    0u
  85:.\Generated_Source\PSoC4/cyfitter_cfg.c **** #define CYCLOCKSTART_XTAL_ERROR  1u
  86:.\Generated_Source\PSoC4/cyfitter_cfg.c **** #define CYCLOCKSTART_32KHZ_ERROR 2u
  87:.\Generated_Source\PSoC4/cyfitter_cfg.c **** #define CYCLOCKSTART_PLL_ERROR   3u
  88:.\Generated_Source\PSoC4/cyfitter_cfg.c **** 
  89:.\Generated_Source\PSoC4/cyfitter_cfg.c **** #ifdef CY_NEED_CYCLOCKSTARTUPERROR
  90:.\Generated_Source\PSoC4/cyfitter_cfg.c **** /*******************************************************************************
  91:.\Generated_Source\PSoC4/cyfitter_cfg.c **** * Function Name: CyClockStartupError
  92:.\Generated_Source\PSoC4/cyfitter_cfg.c **** ********************************************************************************
  93:.\Generated_Source\PSoC4/cyfitter_cfg.c **** * Summary:
  94:.\Generated_Source\PSoC4/cyfitter_cfg.c **** *  If an error is encountered during clock configuration (crystal startup error,
  95:.\Generated_Source\PSoC4/cyfitter_cfg.c **** *  PLL lock error, etc.), the system will end up here.  Unless reimplemented by
  96:.\Generated_Source\PSoC4/cyfitter_cfg.c **** *  the customer, this function will stop in an infinite loop.
  97:.\Generated_Source\PSoC4/cyfitter_cfg.c **** *
  98:.\Generated_Source\PSoC4/cyfitter_cfg.c **** * Parameters:
ARM GAS  C:\Users\owono\AppData\Local\Temp\ccd0Z0VF.s 			page 5


  99:.\Generated_Source\PSoC4/cyfitter_cfg.c **** *   void
 100:.\Generated_Source\PSoC4/cyfitter_cfg.c **** *
 101:.\Generated_Source\PSoC4/cyfitter_cfg.c **** * Return:
 102:.\Generated_Source\PSoC4/cyfitter_cfg.c **** *   void
 103:.\Generated_Source\PSoC4/cyfitter_cfg.c **** *
 104:.\Generated_Source\PSoC4/cyfitter_cfg.c **** *******************************************************************************/
 105:.\Generated_Source\PSoC4/cyfitter_cfg.c **** CY_CFG_UNUSED
 106:.\Generated_Source\PSoC4/cyfitter_cfg.c **** static void CyClockStartupError(uint8 errorCode);
 107:.\Generated_Source\PSoC4/cyfitter_cfg.c **** CY_CFG_UNUSED
 108:.\Generated_Source\PSoC4/cyfitter_cfg.c **** static void CyClockStartupError(uint8 errorCode)
 109:.\Generated_Source\PSoC4/cyfitter_cfg.c **** {
 131              		.loc 1 109 0
 132              		.cfi_startproc
 133 0000 80B5     		push	{r7, lr}
 134              		.cfi_def_cfa_offset 8
 135              		.cfi_offset 7, -8
 136              		.cfi_offset 14, -4
 137 0002 82B0     		sub	sp, sp, #8
 138              		.cfi_def_cfa_offset 16
 139 0004 00AF     		add	r7, sp, #0
 140              		.cfi_def_cfa_register 7
 141 0006 021C     		mov	r2, r0
 142 0008 FB1D     		add	r3, r7, #7
 143 000a 1A70     		strb	r2, [r3]
 110:.\Generated_Source\PSoC4/cyfitter_cfg.c ****     /* To remove the compiler warning if errorCode not used.                */
 111:.\Generated_Source\PSoC4/cyfitter_cfg.c ****     errorCode = errorCode;
 144              		.loc 1 111 0
 145 000c FB1D     		add	r3, r7, #7
 146 000e FA1D     		add	r2, r7, #7
 147 0010 1278     		ldrb	r2, [r2]
 148 0012 1A70     		strb	r2, [r3]
 149              	.L5:
 112:.\Generated_Source\PSoC4/cyfitter_cfg.c **** 
 113:.\Generated_Source\PSoC4/cyfitter_cfg.c ****     /* `#START CyClockStartupError` */
 114:.\Generated_Source\PSoC4/cyfitter_cfg.c **** 
 115:.\Generated_Source\PSoC4/cyfitter_cfg.c ****     /* If we have a clock startup error (bad MHz crystal, PLL lock, etc.),  */
 116:.\Generated_Source\PSoC4/cyfitter_cfg.c ****     /* we will end up here to allow the customer to implement something to  */
 117:.\Generated_Source\PSoC4/cyfitter_cfg.c ****     /* deal with the clock condition.                                       */
 118:.\Generated_Source\PSoC4/cyfitter_cfg.c **** 
 119:.\Generated_Source\PSoC4/cyfitter_cfg.c ****     /* `#END` */
 120:.\Generated_Source\PSoC4/cyfitter_cfg.c **** 
 121:.\Generated_Source\PSoC4/cyfitter_cfg.c ****     /* If nothing else, stop here since the clocks have not started         */
 122:.\Generated_Source\PSoC4/cyfitter_cfg.c ****     /* correctly.                                                           */
 123:.\Generated_Source\PSoC4/cyfitter_cfg.c ****     while(1) {}
 150              		.loc 1 123 0 discriminator 1
 151 0014 FEE7     		b	.L5
 152              		.cfi_endproc
 153              	.LFE5:
 154              		.size	CyClockStartupError, .-CyClockStartupError
 155 0016 C046     		.section	.text.cfg_write_bytes32,"ax",%progbits
 156              		.align	2
 157              		.code	16
 158              		.thumb_func
 159              		.type	cfg_write_bytes32, %function
 160              	cfg_write_bytes32:
 161              	.LFB6:
 124:.\Generated_Source\PSoC4/cyfitter_cfg.c **** }
ARM GAS  C:\Users\owono\AppData\Local\Temp\ccd0Z0VF.s 			page 6


 125:.\Generated_Source\PSoC4/cyfitter_cfg.c **** #endif
 126:.\Generated_Source\PSoC4/cyfitter_cfg.c **** 
 127:.\Generated_Source\PSoC4/cyfitter_cfg.c **** #define CY_CFG_BASE_ADDR_COUNT 9u
 128:.\Generated_Source\PSoC4/cyfitter_cfg.c **** CYPACKED typedef struct
 129:.\Generated_Source\PSoC4/cyfitter_cfg.c **** {
 130:.\Generated_Source\PSoC4/cyfitter_cfg.c **** 	uint8 offset;
 131:.\Generated_Source\PSoC4/cyfitter_cfg.c **** 	uint8 value;
 132:.\Generated_Source\PSoC4/cyfitter_cfg.c **** } CYPACKED_ATTR cy_cfg_addrvalue_t;
 133:.\Generated_Source\PSoC4/cyfitter_cfg.c **** 
 134:.\Generated_Source\PSoC4/cyfitter_cfg.c **** 
 135:.\Generated_Source\PSoC4/cyfitter_cfg.c **** 
 136:.\Generated_Source\PSoC4/cyfitter_cfg.c **** /*******************************************************************************
 137:.\Generated_Source\PSoC4/cyfitter_cfg.c **** * Function Name: cfg_write_bytes32
 138:.\Generated_Source\PSoC4/cyfitter_cfg.c **** ********************************************************************************
 139:.\Generated_Source\PSoC4/cyfitter_cfg.c **** * Summary:
 140:.\Generated_Source\PSoC4/cyfitter_cfg.c **** *  This function is used for setting up the chip configuration areas that
 141:.\Generated_Source\PSoC4/cyfitter_cfg.c **** *  contain relatively sparse data.
 142:.\Generated_Source\PSoC4/cyfitter_cfg.c **** *
 143:.\Generated_Source\PSoC4/cyfitter_cfg.c **** * Parameters:
 144:.\Generated_Source\PSoC4/cyfitter_cfg.c **** *   void
 145:.\Generated_Source\PSoC4/cyfitter_cfg.c **** *
 146:.\Generated_Source\PSoC4/cyfitter_cfg.c **** * Return:
 147:.\Generated_Source\PSoC4/cyfitter_cfg.c **** *   void
 148:.\Generated_Source\PSoC4/cyfitter_cfg.c **** *
 149:.\Generated_Source\PSoC4/cyfitter_cfg.c **** *******************************************************************************/
 150:.\Generated_Source\PSoC4/cyfitter_cfg.c **** static void cfg_write_bytes32(const uint32 addr_table[], const cy_cfg_addrvalue_t data_table[]);
 151:.\Generated_Source\PSoC4/cyfitter_cfg.c **** static void cfg_write_bytes32(const uint32 addr_table[], const cy_cfg_addrvalue_t data_table[])
 152:.\Generated_Source\PSoC4/cyfitter_cfg.c **** {
 162              		.loc 1 152 0
 163              		.cfi_startproc
 164 0000 80B5     		push	{r7, lr}
 165              		.cfi_def_cfa_offset 8
 166              		.cfi_offset 7, -8
 167              		.cfi_offset 14, -4
 168 0002 86B0     		sub	sp, sp, #24
 169              		.cfi_def_cfa_offset 32
 170 0004 00AF     		add	r7, sp, #0
 171              		.cfi_def_cfa_register 7
 172 0006 7860     		str	r0, [r7, #4]
 173 0008 3960     		str	r1, [r7]
 153:.\Generated_Source\PSoC4/cyfitter_cfg.c **** 	/* For 32-bit little-endian architectures */
 154:.\Generated_Source\PSoC4/cyfitter_cfg.c **** 	uint32 i, j = 0u;
 174              		.loc 1 154 0
 175 000a 0023     		mov	r3, #0
 176 000c 3B61     		str	r3, [r7, #16]
 155:.\Generated_Source\PSoC4/cyfitter_cfg.c **** 	for (i = 0u; i < CY_CFG_BASE_ADDR_COUNT; i++)
 177              		.loc 1 155 0
 178 000e 0023     		mov	r3, #0
 179 0010 7B61     		str	r3, [r7, #20]
 180 0012 2FE0     		b	.L7
 181              	.L10:
 182              	.LBB2:
 156:.\Generated_Source\PSoC4/cyfitter_cfg.c **** 	{
 157:.\Generated_Source\PSoC4/cyfitter_cfg.c **** 		uint32 baseAddr = addr_table[i];
 183              		.loc 1 157 0
 184 0014 7B69     		ldr	r3, [r7, #20]
 185 0016 9B00     		lsl	r3, r3, #2
ARM GAS  C:\Users\owono\AppData\Local\Temp\ccd0Z0VF.s 			page 7


 186 0018 7A68     		ldr	r2, [r7, #4]
 187 001a D318     		add	r3, r2, r3
 188 001c 1B68     		ldr	r3, [r3]
 189 001e BB60     		str	r3, [r7, #8]
 158:.\Generated_Source\PSoC4/cyfitter_cfg.c **** 		uint8 count = (uint8)baseAddr;
 190              		.loc 1 158 0
 191 0020 0F23     		mov	r3, #15
 192 0022 FB18     		add	r3, r7, r3
 193 0024 BA68     		ldr	r2, [r7, #8]
 194 0026 1A70     		strb	r2, [r3]
 159:.\Generated_Source\PSoC4/cyfitter_cfg.c **** 		baseAddr &= 0xFFFFFF00u;
 195              		.loc 1 159 0
 196 0028 BB68     		ldr	r3, [r7, #8]
 197 002a FF22     		mov	r2, #255
 198 002c 9343     		bic	r3, r2
 199 002e BB60     		str	r3, [r7, #8]
 160:.\Generated_Source\PSoC4/cyfitter_cfg.c **** 		while (count != 0u)
 200              		.loc 1 160 0
 201 0030 18E0     		b	.L8
 202              	.L9:
 161:.\Generated_Source\PSoC4/cyfitter_cfg.c **** 		{
 162:.\Generated_Source\PSoC4/cyfitter_cfg.c **** 			CY_SET_XTND_REG8((void CYFAR *)(baseAddr + data_table[j].offset), data_table[j].value);
 203              		.loc 1 162 0
 204 0032 3B69     		ldr	r3, [r7, #16]
 205 0034 5B00     		lsl	r3, r3, #1
 206 0036 3A68     		ldr	r2, [r7]
 207 0038 D318     		add	r3, r2, r3
 208 003a 1B78     		ldrb	r3, [r3]
 209 003c 1A1C     		mov	r2, r3
 210 003e BB68     		ldr	r3, [r7, #8]
 211 0040 D318     		add	r3, r2, r3
 212 0042 191C     		mov	r1, r3
 213 0044 3B69     		ldr	r3, [r7, #16]
 214 0046 5B00     		lsl	r3, r3, #1
 215 0048 3A68     		ldr	r2, [r7]
 216 004a D318     		add	r3, r2, r3
 217 004c 5B78     		ldrb	r3, [r3, #1]
 218 004e 0B70     		strb	r3, [r1]
 163:.\Generated_Source\PSoC4/cyfitter_cfg.c **** 			j++;
 219              		.loc 1 163 0
 220 0050 3B69     		ldr	r3, [r7, #16]
 221 0052 0133     		add	r3, r3, #1
 222 0054 3B61     		str	r3, [r7, #16]
 164:.\Generated_Source\PSoC4/cyfitter_cfg.c **** 			count--;
 223              		.loc 1 164 0
 224 0056 0F23     		mov	r3, #15
 225 0058 FB18     		add	r3, r7, r3
 226 005a 1A78     		ldrb	r2, [r3]
 227 005c 0F23     		mov	r3, #15
 228 005e FB18     		add	r3, r7, r3
 229 0060 013A     		sub	r2, r2, #1
 230 0062 1A70     		strb	r2, [r3]
 231              	.L8:
 160:.\Generated_Source\PSoC4/cyfitter_cfg.c **** 		{
 232              		.loc 1 160 0
 233 0064 0F23     		mov	r3, #15
 234 0066 FB18     		add	r3, r7, r3
ARM GAS  C:\Users\owono\AppData\Local\Temp\ccd0Z0VF.s 			page 8


 235 0068 1B78     		ldrb	r3, [r3]
 236 006a 002B     		cmp	r3, #0
 237 006c E1D1     		bne	.L9
 238              	.LBE2:
 155:.\Generated_Source\PSoC4/cyfitter_cfg.c **** 	{
 239              		.loc 1 155 0 discriminator 2
 240 006e 7B69     		ldr	r3, [r7, #20]
 241 0070 0133     		add	r3, r3, #1
 242 0072 7B61     		str	r3, [r7, #20]
 243              	.L7:
 155:.\Generated_Source\PSoC4/cyfitter_cfg.c **** 	{
 244              		.loc 1 155 0 is_stmt 0 discriminator 1
 245 0074 7B69     		ldr	r3, [r7, #20]
 246 0076 082B     		cmp	r3, #8
 247 0078 CCD9     		bls	.L10
 165:.\Generated_Source\PSoC4/cyfitter_cfg.c **** 		}
 166:.\Generated_Source\PSoC4/cyfitter_cfg.c **** 	}
 167:.\Generated_Source\PSoC4/cyfitter_cfg.c **** }
 248              		.loc 1 167 0 is_stmt 1
 249 007a BD46     		mov	sp, r7
 250 007c 06B0     		add	sp, sp, #24
 251              		@ sp needed
 252 007e 80BD     		pop	{r7, pc}
 253              		.cfi_endproc
 254              	.LFE6:
 255              		.size	cfg_write_bytes32, .-cfg_write_bytes32
 256              		.section	.psocinit,"ax",%progbits
 257              		.align	2
 258              		.code	16
 259              		.thumb_func
 260              		.type	ClockSetup, %function
 261              	ClockSetup:
 262              	.LFB7:
 168:.\Generated_Source\PSoC4/cyfitter_cfg.c **** 
 169:.\Generated_Source\PSoC4/cyfitter_cfg.c **** 
 170:.\Generated_Source\PSoC4/cyfitter_cfg.c **** /*******************************************************************************
 171:.\Generated_Source\PSoC4/cyfitter_cfg.c **** * Function Name: ClockSetup
 172:.\Generated_Source\PSoC4/cyfitter_cfg.c **** ********************************************************************************
 173:.\Generated_Source\PSoC4/cyfitter_cfg.c **** *
 174:.\Generated_Source\PSoC4/cyfitter_cfg.c **** * Summary:
 175:.\Generated_Source\PSoC4/cyfitter_cfg.c **** *   Performs the initialization of all of the clocks in the device based on the
 176:.\Generated_Source\PSoC4/cyfitter_cfg.c **** *   settings in the Clock tab of the DWR.  This includes enabling the requested
 177:.\Generated_Source\PSoC4/cyfitter_cfg.c **** *   clocks and setting the necessary dividers to produce the desired frequency. 
 178:.\Generated_Source\PSoC4/cyfitter_cfg.c **** *
 179:.\Generated_Source\PSoC4/cyfitter_cfg.c **** * Parameters:
 180:.\Generated_Source\PSoC4/cyfitter_cfg.c **** *   void
 181:.\Generated_Source\PSoC4/cyfitter_cfg.c **** *
 182:.\Generated_Source\PSoC4/cyfitter_cfg.c **** * Return:
 183:.\Generated_Source\PSoC4/cyfitter_cfg.c **** *   void
 184:.\Generated_Source\PSoC4/cyfitter_cfg.c **** *
 185:.\Generated_Source\PSoC4/cyfitter_cfg.c **** *******************************************************************************/
 186:.\Generated_Source\PSoC4/cyfitter_cfg.c **** static void ClockSetup(void);
 187:.\Generated_Source\PSoC4/cyfitter_cfg.c **** CY_CFG_SECTION
 188:.\Generated_Source\PSoC4/cyfitter_cfg.c **** static void ClockSetup(void)
 189:.\Generated_Source\PSoC4/cyfitter_cfg.c **** {
 263              		.loc 1 189 0
 264              		.cfi_startproc
ARM GAS  C:\Users\owono\AppData\Local\Temp\ccd0Z0VF.s 			page 9


 265 0000 80B5     		push	{r7, lr}
 266              		.cfi_def_cfa_offset 8
 267              		.cfi_offset 7, -8
 268              		.cfi_offset 14, -4
 269 0002 82B0     		sub	sp, sp, #8
 270              		.cfi_def_cfa_offset 16
 271 0004 00AF     		add	r7, sp, #0
 272              		.cfi_def_cfa_register 7
 190:.\Generated_Source\PSoC4/cyfitter_cfg.c **** 	uint8 ecoStatus;
 191:.\Generated_Source\PSoC4/cyfitter_cfg.c **** 
 192:.\Generated_Source\PSoC4/cyfitter_cfg.c **** 	/* Set Flash Cycles based on max possible frequency in case a glitch occurs during ClockSetup(). *
 193:.\Generated_Source\PSoC4/cyfitter_cfg.c **** 	CY_SET_REG32((void CYXDATA *)(CYREG_CPUSS_FLASH_CTL), (0x0012u));
 273              		.loc 1 193 0
 274 0006 3C4B     		ldr	r3, .L13
 275 0008 1222     		mov	r2, #18
 276 000a 1A60     		str	r2, [r3]
 194:.\Generated_Source\PSoC4/cyfitter_cfg.c **** 
 195:.\Generated_Source\PSoC4/cyfitter_cfg.c **** 	/* Start the WCO */
 196:.\Generated_Source\PSoC4/cyfitter_cfg.c **** 	CySysClkWcoStart();
 277              		.loc 1 196 0
 278 000c FFF7FEFF 		bl	CySysClkWcoStart
 197:.\Generated_Source\PSoC4/cyfitter_cfg.c **** 	CyDelayCycles(12000000u); /* WCO may take up to 500ms to start */
 279              		.loc 1 197 0
 280 0010 3A4B     		ldr	r3, .L13+4
 281 0012 181C     		mov	r0, r3
 282 0014 FFF7FEFF 		bl	CyDelayCycles
 198:.\Generated_Source\PSoC4/cyfitter_cfg.c **** 	(void)CySysClkWcoSetPowerMode(CY_SYS_CLK_WCO_LPM);    /* Switch to the low power mode */
 283              		.loc 1 198 0
 284 0018 0120     		mov	r0, #1
 285 001a FFF7FEFF 		bl	CySysClkWcoSetPowerMode
 199:.\Generated_Source\PSoC4/cyfitter_cfg.c **** 
 200:.\Generated_Source\PSoC4/cyfitter_cfg.c **** 	/* Setup and trim IMO based on desired frequency. */
 201:.\Generated_Source\PSoC4/cyfitter_cfg.c **** 	CySysClkWriteImoFreq(3u);
 286              		.loc 1 201 0
 287 001e 0320     		mov	r0, #3
 288 0020 FFF7FEFF 		bl	CySysClkWriteImoFreq
 202:.\Generated_Source\PSoC4/cyfitter_cfg.c **** 	/* CYDEV_CLK_ILO_CONFIG Starting address: CYDEV_CLK_ILO_CONFIG */
 203:.\Generated_Source\PSoC4/cyfitter_cfg.c **** 	CY_SET_XTND_REG32((void CYFAR *)(CYREG_CLK_ILO_CONFIG), 0x80000006u);
 289              		.loc 1 203 0
 290 0024 364B     		ldr	r3, .L13+8
 291 0026 374A     		ldr	r2, .L13+12
 292 0028 1A60     		str	r2, [r3]
 204:.\Generated_Source\PSoC4/cyfitter_cfg.c **** 
 205:.\Generated_Source\PSoC4/cyfitter_cfg.c **** 	/* CYDEV_WDT_CONFIG Starting address: CYDEV_WDT_CONFIG */
 206:.\Generated_Source\PSoC4/cyfitter_cfg.c **** 	CY_SET_XTND_REG32((void CYFAR *)(CYREG_WDT_CONFIG), 0x40000000u);
 293              		.loc 1 206 0
 294 002a 374B     		ldr	r3, .L13+16
 295 002c 8022     		mov	r2, #128
 296 002e D205     		lsl	r2, r2, #23
 297 0030 1A60     		str	r2, [r3]
 207:.\Generated_Source\PSoC4/cyfitter_cfg.c **** 
 208:.\Generated_Source\PSoC4/cyfitter_cfg.c **** 
 209:.\Generated_Source\PSoC4/cyfitter_cfg.c **** 	/* Enable fast start mode for XO */
 210:.\Generated_Source\PSoC4/cyfitter_cfg.c **** 	CY_SET_REG32((void*)CYREG_BLE_BLERD_BB_XO, CY_GET_REG32((void*)CYREG_BLE_BLERD_BB_XO) | (uint32)0x
 298              		.loc 1 210 0
 299 0032 364B     		ldr	r3, .L13+20
 300 0034 354A     		ldr	r2, .L13+20
ARM GAS  C:\Users\owono\AppData\Local\Temp\ccd0Z0VF.s 			page 10


 301 0036 1268     		ldr	r2, [r2]
 302 0038 0221     		mov	r1, #2
 303 003a 0A43     		orr	r2, r1
 304 003c 1A60     		str	r2, [r3]
 211:.\Generated_Source\PSoC4/cyfitter_cfg.c **** 	CY_SET_XTND_REG32((void CYFAR *)(CYREG_BLE_BLERD_BB_XO_CAPTRIM), 0x00003E2Du);
 305              		.loc 1 211 0
 306 003e 344B     		ldr	r3, .L13+24
 307 0040 344A     		ldr	r2, .L13+28
 308 0042 1A60     		str	r2, [r3]
 212:.\Generated_Source\PSoC4/cyfitter_cfg.c **** 	/* Disable Crystal Stable Interrupt before enabling ECO */
 213:.\Generated_Source\PSoC4/cyfitter_cfg.c **** 	CY_SET_REG32((void*)CYREG_BLE_BLESS_LL_DSM_CTRL, CY_GET_REG32((void*)CYREG_BLE_BLESS_LL_DSM_CTRL) 
 309              		.loc 1 213 0
 310 0044 344B     		ldr	r3, .L13+32
 311 0046 344A     		ldr	r2, .L13+32
 312 0048 1268     		ldr	r2, [r2]
 313 004a 0821     		mov	r1, #8
 314 004c 8A43     		bic	r2, r1
 315 004e 1A60     		str	r2, [r3]
 214:.\Generated_Source\PSoC4/cyfitter_cfg.c **** 	/* Start the ECO and check status since it is needed for HFCLK */
 215:.\Generated_Source\PSoC4/cyfitter_cfg.c **** 	ecoStatus = CySysClkEcoStart(2000u);
 316              		.loc 1 215 0
 317 0050 FA23     		mov	r3, #250
 318 0052 DB00     		lsl	r3, r3, #3
 319 0054 181C     		mov	r0, r3
 320 0056 FFF7FEFF 		bl	CySysClkEcoStart
 321 005a 021C     		mov	r2, r0
 322 005c FB1D     		add	r3, r7, #7
 323 005e 1A70     		strb	r2, [r3]
 216:.\Generated_Source\PSoC4/cyfitter_cfg.c **** 	if (ecoStatus != CYRET_SUCCESS)
 324              		.loc 1 216 0
 325 0060 FB1D     		add	r3, r7, #7
 326 0062 1B78     		ldrb	r3, [r3]
 327 0064 002B     		cmp	r3, #0
 328 0066 02D0     		beq	.L12
 217:.\Generated_Source\PSoC4/cyfitter_cfg.c **** 	{
 218:.\Generated_Source\PSoC4/cyfitter_cfg.c **** 		CyClockStartupError(CYCLOCKSTART_XTAL_ERROR);
 329              		.loc 1 218 0
 330 0068 0120     		mov	r0, #1
 331 006a FFF7FEFF 		bl	CyClockStartupError
 332              	.L12:
 219:.\Generated_Source\PSoC4/cyfitter_cfg.c **** 	}
 220:.\Generated_Source\PSoC4/cyfitter_cfg.c **** 	CyDelayUs(1500u); /* Wait to stabalize */
 333              		.loc 1 220 0
 334 006e 2B4B     		ldr	r3, .L13+36
 335 0070 181C     		mov	r0, r3
 336 0072 FFF7FEFF 		bl	CyDelayUs
 221:.\Generated_Source\PSoC4/cyfitter_cfg.c **** 
 222:.\Generated_Source\PSoC4/cyfitter_cfg.c **** 	/* Setup phase aligned clocks */
 223:.\Generated_Source\PSoC4/cyfitter_cfg.c **** 	CY_SET_REG32((void *)CYREG_PERI_DIV_16_CTL3, 0x003A9700u);
 337              		.loc 1 223 0
 338 0076 2A4B     		ldr	r3, .L13+40
 339 0078 2A4A     		ldr	r2, .L13+44
 340 007a 1A60     		str	r2, [r3]
 224:.\Generated_Source\PSoC4/cyfitter_cfg.c **** 	CY_SET_REG32((void *)CYREG_PERI_DIV_CMD, 0x8000FF43u);
 341              		.loc 1 224 0
 342 007c 2A4B     		ldr	r3, .L13+48
 343 007e 2B4A     		ldr	r2, .L13+52
ARM GAS  C:\Users\owono\AppData\Local\Temp\ccd0Z0VF.s 			page 11


 344 0080 1A60     		str	r2, [r3]
 225:.\Generated_Source\PSoC4/cyfitter_cfg.c **** 	CY_SET_REG32((void *)CYREG_PERI_DIV_16_CTL0, 0x00000100u);
 345              		.loc 1 225 0
 346 0082 2B4B     		ldr	r3, .L13+56
 347 0084 8022     		mov	r2, #128
 348 0086 5200     		lsl	r2, r2, #1
 349 0088 1A60     		str	r2, [r3]
 226:.\Generated_Source\PSoC4/cyfitter_cfg.c **** 	CY_SET_REG32((void *)CYREG_PERI_DIV_CMD, 0x8000FF40u);
 350              		.loc 1 226 0
 351 008a 274B     		ldr	r3, .L13+48
 352 008c 294A     		ldr	r2, .L13+60
 353 008e 1A60     		str	r2, [r3]
 227:.\Generated_Source\PSoC4/cyfitter_cfg.c **** 	CY_SET_REG32((void *)CYREG_PERI_DIV_16_CTL1, 0x00000100u);
 354              		.loc 1 227 0
 355 0090 294B     		ldr	r3, .L13+64
 356 0092 8022     		mov	r2, #128
 357 0094 5200     		lsl	r2, r2, #1
 358 0096 1A60     		str	r2, [r3]
 228:.\Generated_Source\PSoC4/cyfitter_cfg.c **** 	CY_SET_REG32((void *)CYREG_PERI_DIV_CMD, 0x8000FF41u);
 359              		.loc 1 228 0
 360 0098 234B     		ldr	r3, .L13+48
 361 009a 284A     		ldr	r2, .L13+68
 362 009c 1A60     		str	r2, [r3]
 229:.\Generated_Source\PSoC4/cyfitter_cfg.c **** 	CY_SET_REG32((void *)CYREG_PERI_DIV_16_CTL2, 0x00009B00u);
 363              		.loc 1 229 0
 364 009e 284B     		ldr	r3, .L13+72
 365 00a0 9B22     		mov	r2, #155
 366 00a2 1202     		lsl	r2, r2, #8
 367 00a4 1A60     		str	r2, [r3]
 230:.\Generated_Source\PSoC4/cyfitter_cfg.c **** 	CY_SET_REG32((void *)CYREG_PERI_DIV_CMD, 0x8000FF42u);
 368              		.loc 1 230 0
 369 00a6 204B     		ldr	r3, .L13+48
 370 00a8 264A     		ldr	r2, .L13+76
 371 00aa 1A60     		str	r2, [r3]
 231:.\Generated_Source\PSoC4/cyfitter_cfg.c **** 
 232:.\Generated_Source\PSoC4/cyfitter_cfg.c **** 	/* CYDEV_CLK_SELECT Starting address: CYDEV_CLK_SELECT */
 233:.\Generated_Source\PSoC4/cyfitter_cfg.c **** 	CY_SET_XTND_REG32((void CYFAR *)(CYREG_CLK_SELECT), 0x00080092u);
 372              		.loc 1 233 0
 373 00ac 264B     		ldr	r3, .L13+80
 374 00ae 274A     		ldr	r2, .L13+84
 375 00b0 1A60     		str	r2, [r3]
 234:.\Generated_Source\PSoC4/cyfitter_cfg.c **** 
 235:.\Generated_Source\PSoC4/cyfitter_cfg.c **** 	/* CYDEV_CLK_IMO_CONFIG Starting address: CYDEV_CLK_IMO_CONFIG */
 236:.\Generated_Source\PSoC4/cyfitter_cfg.c **** 	CY_SET_XTND_REG32((void CYFAR *)(CYREG_CLK_IMO_CONFIG), 0xA6000000u);
 376              		.loc 1 236 0
 377 00b2 274B     		ldr	r3, .L13+88
 378 00b4 A622     		mov	r2, #166
 379 00b6 1206     		lsl	r2, r2, #24
 380 00b8 1A60     		str	r2, [r3]
 237:.\Generated_Source\PSoC4/cyfitter_cfg.c **** 
 238:.\Generated_Source\PSoC4/cyfitter_cfg.c **** 	/* CYDEV_PERI_PCLK_CTL14 Starting address: CYDEV_PERI_PCLK_CTL14 */
 239:.\Generated_Source\PSoC4/cyfitter_cfg.c **** 	CY_SET_XTND_REG32((void CYFAR *)(CYREG_PERI_PCLK_CTL14), 0x00000043u);
 381              		.loc 1 239 0
 382 00ba 264B     		ldr	r3, .L13+92
 383 00bc 4322     		mov	r2, #67
 384 00be 1A60     		str	r2, [r3]
 240:.\Generated_Source\PSoC4/cyfitter_cfg.c **** 
ARM GAS  C:\Users\owono\AppData\Local\Temp\ccd0Z0VF.s 			page 12


 241:.\Generated_Source\PSoC4/cyfitter_cfg.c **** 	/* CYDEV_PERI_PCLK_CTL12 Starting address: CYDEV_PERI_PCLK_CTL12 */
 242:.\Generated_Source\PSoC4/cyfitter_cfg.c **** 	CY_SET_XTND_REG32((void CYFAR *)(CYREG_PERI_PCLK_CTL12), 0x00000040u);
 385              		.loc 1 242 0
 386 00c0 254B     		ldr	r3, .L13+96
 387 00c2 4022     		mov	r2, #64
 388 00c4 1A60     		str	r2, [r3]
 243:.\Generated_Source\PSoC4/cyfitter_cfg.c **** 
 244:.\Generated_Source\PSoC4/cyfitter_cfg.c **** 	/* CYDEV_PERI_PCLK_CTL10 Starting address: CYDEV_PERI_PCLK_CTL10 */
 245:.\Generated_Source\PSoC4/cyfitter_cfg.c **** 	CY_SET_XTND_REG32((void CYFAR *)(CYREG_PERI_PCLK_CTL10), 0x00000041u);
 389              		.loc 1 245 0
 390 00c6 254B     		ldr	r3, .L13+100
 391 00c8 4122     		mov	r2, #65
 392 00ca 1A60     		str	r2, [r3]
 246:.\Generated_Source\PSoC4/cyfitter_cfg.c **** 
 247:.\Generated_Source\PSoC4/cyfitter_cfg.c **** 	/* CYDEV_PERI_PCLK_CTL9 Starting address: CYDEV_PERI_PCLK_CTL9 */
 248:.\Generated_Source\PSoC4/cyfitter_cfg.c **** 	CY_SET_XTND_REG32((void CYFAR *)(CYREG_PERI_PCLK_CTL9), 0x00000041u);
 393              		.loc 1 248 0
 394 00cc 244B     		ldr	r3, .L13+104
 395 00ce 4122     		mov	r2, #65
 396 00d0 1A60     		str	r2, [r3]
 249:.\Generated_Source\PSoC4/cyfitter_cfg.c **** 
 250:.\Generated_Source\PSoC4/cyfitter_cfg.c **** 	/* CYDEV_PERI_PCLK_CTL8 Starting address: CYDEV_PERI_PCLK_CTL8 */
 251:.\Generated_Source\PSoC4/cyfitter_cfg.c **** 	CY_SET_XTND_REG32((void CYFAR *)(CYREG_PERI_PCLK_CTL8), 0x00000041u);
 397              		.loc 1 251 0
 398 00d2 244B     		ldr	r3, .L13+108
 399 00d4 4122     		mov	r2, #65
 400 00d6 1A60     		str	r2, [r3]
 252:.\Generated_Source\PSoC4/cyfitter_cfg.c **** 
 253:.\Generated_Source\PSoC4/cyfitter_cfg.c **** 	/* CYDEV_PERI_PCLK_CTL7 Starting address: CYDEV_PERI_PCLK_CTL7 */
 254:.\Generated_Source\PSoC4/cyfitter_cfg.c **** 	CY_SET_XTND_REG32((void CYFAR *)(CYREG_PERI_PCLK_CTL7), 0x00000041u);
 401              		.loc 1 254 0
 402 00d8 234B     		ldr	r3, .L13+112
 403 00da 4122     		mov	r2, #65
 404 00dc 1A60     		str	r2, [r3]
 255:.\Generated_Source\PSoC4/cyfitter_cfg.c **** 
 256:.\Generated_Source\PSoC4/cyfitter_cfg.c **** 	/* CYDEV_PERI_PCLK_CTL1 Starting address: CYDEV_PERI_PCLK_CTL1 */
 257:.\Generated_Source\PSoC4/cyfitter_cfg.c **** 	CY_SET_XTND_REG32((void CYFAR *)(CYREG_PERI_PCLK_CTL1), 0x00000042u);
 405              		.loc 1 257 0
 406 00de 234B     		ldr	r3, .L13+116
 407 00e0 4222     		mov	r2, #66
 408 00e2 1A60     		str	r2, [r3]
 258:.\Generated_Source\PSoC4/cyfitter_cfg.c **** 
 259:.\Generated_Source\PSoC4/cyfitter_cfg.c **** 	CY_SET_XTND_REG32((void CYFAR *)(CYREG_WDT_CONFIG), 0x40000000u);
 409              		.loc 1 259 0
 410 00e4 084B     		ldr	r3, .L13+16
 411 00e6 8022     		mov	r2, #128
 412 00e8 D205     		lsl	r2, r2, #23
 413 00ea 1A60     		str	r2, [r3]
 260:.\Generated_Source\PSoC4/cyfitter_cfg.c **** 	/* Set Flash Cycles based on newly configured 24.00MHz HFCLK. */
 261:.\Generated_Source\PSoC4/cyfitter_cfg.c **** 	CY_SET_REG32((void CYXDATA *)(CYREG_CPUSS_FLASH_CTL), (0x0011u));
 414              		.loc 1 261 0
 415 00ec 024B     		ldr	r3, .L13
 416 00ee 1122     		mov	r2, #17
 417 00f0 1A60     		str	r2, [r3]
 262:.\Generated_Source\PSoC4/cyfitter_cfg.c **** }
 418              		.loc 1 262 0
 419 00f2 BD46     		mov	sp, r7
ARM GAS  C:\Users\owono\AppData\Local\Temp\ccd0Z0VF.s 			page 13


 420 00f4 02B0     		add	sp, sp, #8
 421              		@ sp needed
 422 00f6 80BD     		pop	{r7, pc}
 423              	.L14:
 424              		.align	2
 425              	.L13:
 426 00f8 30001040 		.word	1074790448
 427 00fc 001BB700 		.word	12000000
 428 0100 04010B40 		.word	1074462980
 429 0104 06000080 		.word	-2147483642
 430 0108 0C020B40 		.word	1074463244
 431 010c 78002E40 		.word	1076756600
 432 0110 7C002E40 		.word	1076756604
 433 0114 2D3E0000 		.word	15917
 434 0118 6CF02E40 		.word	1076818028
 435 011c DC050000 		.word	1500
 436 0120 0C030140 		.word	1073808140
 437 0124 00973A00 		.word	3839744
 438 0128 00000140 		.word	1073807360
 439 012c 43FF0080 		.word	-2147418301
 440 0130 00030140 		.word	1073808128
 441 0134 40FF0080 		.word	-2147418304
 442 0138 04030140 		.word	1073808132
 443 013c 41FF0080 		.word	-2147418303
 444 0140 08030140 		.word	1073808136
 445 0144 42FF0080 		.word	-2147418302
 446 0148 00010B40 		.word	1074462976
 447 014c 92000800 		.word	524434
 448 0150 08010B40 		.word	1074462984
 449 0154 38010140 		.word	1073807672
 450 0158 30010140 		.word	1073807664
 451 015c 28010140 		.word	1073807656
 452 0160 24010140 		.word	1073807652
 453 0164 20010140 		.word	1073807648
 454 0168 1C010140 		.word	1073807644
 455 016c 04010140 		.word	1073807620
 456              		.cfi_endproc
 457              	.LFE7:
 458              		.size	ClockSetup, .-ClockSetup
 459              		.section	.text.AnalogSetDefault,"ax",%progbits
 460              		.align	2
 461              		.code	16
 462              		.thumb_func
 463              		.type	AnalogSetDefault, %function
 464              	AnalogSetDefault:
 465              	.LFB8:
 263:.\Generated_Source\PSoC4/cyfitter_cfg.c **** 
 264:.\Generated_Source\PSoC4/cyfitter_cfg.c **** 
 265:.\Generated_Source\PSoC4/cyfitter_cfg.c **** /* Analog API Functions */
 266:.\Generated_Source\PSoC4/cyfitter_cfg.c **** 
 267:.\Generated_Source\PSoC4/cyfitter_cfg.c **** 
 268:.\Generated_Source\PSoC4/cyfitter_cfg.c **** /*******************************************************************************
 269:.\Generated_Source\PSoC4/cyfitter_cfg.c **** * Function Name: AnalogSetDefault
 270:.\Generated_Source\PSoC4/cyfitter_cfg.c **** ********************************************************************************
 271:.\Generated_Source\PSoC4/cyfitter_cfg.c **** *
 272:.\Generated_Source\PSoC4/cyfitter_cfg.c **** * Summary:
 273:.\Generated_Source\PSoC4/cyfitter_cfg.c **** *  Sets up the analog portions of the chip to default values based on chip
ARM GAS  C:\Users\owono\AppData\Local\Temp\ccd0Z0VF.s 			page 14


 274:.\Generated_Source\PSoC4/cyfitter_cfg.c **** *  configuration options from the project.
 275:.\Generated_Source\PSoC4/cyfitter_cfg.c **** *
 276:.\Generated_Source\PSoC4/cyfitter_cfg.c **** * Parameters:
 277:.\Generated_Source\PSoC4/cyfitter_cfg.c **** *  void
 278:.\Generated_Source\PSoC4/cyfitter_cfg.c **** *
 279:.\Generated_Source\PSoC4/cyfitter_cfg.c **** * Return:
 280:.\Generated_Source\PSoC4/cyfitter_cfg.c **** *  void
 281:.\Generated_Source\PSoC4/cyfitter_cfg.c **** *
 282:.\Generated_Source\PSoC4/cyfitter_cfg.c **** *******************************************************************************/
 283:.\Generated_Source\PSoC4/cyfitter_cfg.c **** static void AnalogSetDefault(void);
 284:.\Generated_Source\PSoC4/cyfitter_cfg.c **** static void AnalogSetDefault(void)
 285:.\Generated_Source\PSoC4/cyfitter_cfg.c **** {
 466              		.loc 1 285 0
 467              		.cfi_startproc
 468 0000 80B5     		push	{r7, lr}
 469              		.cfi_def_cfa_offset 8
 470              		.cfi_offset 7, -8
 471              		.cfi_offset 14, -4
 472 0002 00AF     		add	r7, sp, #0
 473              		.cfi_def_cfa_register 7
 286:.\Generated_Source\PSoC4/cyfitter_cfg.c **** 	CY_SET_XTND_REG32((void CYFAR *)CYREG_CTBM0_CTB_CTRL, 0x80000000u);
 474              		.loc 1 286 0
 475 0004 0C4B     		ldr	r3, .L16
 476 0006 8022     		mov	r2, #128
 477 0008 1206     		lsl	r2, r2, #24
 478 000a 1A60     		str	r2, [r3]
 287:.\Generated_Source\PSoC4/cyfitter_cfg.c **** 	CY_SET_XTND_REG32((void CYFAR *)CYREG_CTBM0_DFT_CTRL, 0x00000003u);
 479              		.loc 1 287 0
 480 000c 0B4B     		ldr	r3, .L16+4
 481 000e 0322     		mov	r2, #3
 482 0010 1A60     		str	r2, [r3]
 288:.\Generated_Source\PSoC4/cyfitter_cfg.c **** 	CY_SET_XTND_REG32((void CYFAR *)CYREG_CTBM0_OA0_SW, 0x00204004u);
 483              		.loc 1 288 0
 484 0012 0B4B     		ldr	r3, .L16+8
 485 0014 0B4A     		ldr	r2, .L16+12
 486 0016 1A60     		str	r2, [r3]
 289:.\Generated_Source\PSoC4/cyfitter_cfg.c **** 	CY_SET_XTND_REG32((void CYFAR *)CYREG_CTBM0_OA1_SW, 0x00000102u);
 487              		.loc 1 289 0
 488 0018 0B4B     		ldr	r3, .L16+16
 489 001a 8122     		mov	r2, #129
 490 001c 5200     		lsl	r2, r2, #1
 491 001e 1A60     		str	r2, [r3]
 290:.\Generated_Source\PSoC4/cyfitter_cfg.c **** 	CY_SET_XTND_REG32((void CYFAR *)CYREG_CTBM1_DFT_CTRL, 0x00000003u);
 492              		.loc 1 290 0
 493 0020 0A4B     		ldr	r3, .L16+20
 494 0022 0322     		mov	r2, #3
 495 0024 1A60     		str	r2, [r3]
 291:.\Generated_Source\PSoC4/cyfitter_cfg.c **** 	CY_SET_XTND_REG32((void CYFAR *)CYREG_PASS_DSAB_DSAB_CTRL, 0x00000000u);
 496              		.loc 1 291 0
 497 0026 0A4B     		ldr	r3, .L16+24
 498 0028 0022     		mov	r2, #0
 499 002a 1A60     		str	r2, [r3]
 292:.\Generated_Source\PSoC4/cyfitter_cfg.c **** 	SetAnalogRoutingPumps(1);
 500              		.loc 1 292 0
 501 002c 0120     		mov	r0, #1
 502 002e FFF7FEFF 		bl	SetAnalogRoutingPumps
 293:.\Generated_Source\PSoC4/cyfitter_cfg.c **** }
ARM GAS  C:\Users\owono\AppData\Local\Temp\ccd0Z0VF.s 			page 15


 503              		.loc 1 293 0
 504 0032 BD46     		mov	sp, r7
 505              		@ sp needed
 506 0034 80BD     		pop	{r7, pc}
 507              	.L17:
 508 0036 C046     		.align	2
 509              	.L16:
 510 0038 00003040 		.word	1076887552
 511 003c 30003040 		.word	1076887600
 512 0040 80003040 		.word	1076887680
 513 0044 04402000 		.word	2113540
 514 0048 88003040 		.word	1076887688
 515 004c 30003140 		.word	1076953136
 516 0050 000E3F40 		.word	1077874176
 517              		.cfi_endproc
 518              	.LFE8:
 519              		.size	AnalogSetDefault, .-AnalogSetDefault
 520              		.section	.text.SetAnalogRoutingPumps,"ax",%progbits
 521              		.align	2
 522              		.global	SetAnalogRoutingPumps
 523              		.code	16
 524              		.thumb_func
 525              		.type	SetAnalogRoutingPumps, %function
 526              	SetAnalogRoutingPumps:
 527              	.LFB9:
 294:.\Generated_Source\PSoC4/cyfitter_cfg.c **** 
 295:.\Generated_Source\PSoC4/cyfitter_cfg.c **** 
 296:.\Generated_Source\PSoC4/cyfitter_cfg.c **** /*******************************************************************************
 297:.\Generated_Source\PSoC4/cyfitter_cfg.c **** * Function Name: SetAnalogRoutingPumps
 298:.\Generated_Source\PSoC4/cyfitter_cfg.c **** ********************************************************************************
 299:.\Generated_Source\PSoC4/cyfitter_cfg.c **** *
 300:.\Generated_Source\PSoC4/cyfitter_cfg.c **** * Summary:
 301:.\Generated_Source\PSoC4/cyfitter_cfg.c **** * Enables or disables the analog pumps feeding analog routing switches.
 302:.\Generated_Source\PSoC4/cyfitter_cfg.c **** * Intended to be called at startup, based on the Vdda system configuration;
 303:.\Generated_Source\PSoC4/cyfitter_cfg.c **** * may be called during operation when the user informs us that the Vdda voltage crossed the pump th
 304:.\Generated_Source\PSoC4/cyfitter_cfg.c **** *
 305:.\Generated_Source\PSoC4/cyfitter_cfg.c **** * Parameters:
 306:.\Generated_Source\PSoC4/cyfitter_cfg.c **** *  enabled - 1 to enable the pumps, 0 to disable the pumps
 307:.\Generated_Source\PSoC4/cyfitter_cfg.c **** *
 308:.\Generated_Source\PSoC4/cyfitter_cfg.c **** * Return:
 309:.\Generated_Source\PSoC4/cyfitter_cfg.c **** *  void
 310:.\Generated_Source\PSoC4/cyfitter_cfg.c **** *
 311:.\Generated_Source\PSoC4/cyfitter_cfg.c **** *******************************************************************************/
 312:.\Generated_Source\PSoC4/cyfitter_cfg.c **** void SetAnalogRoutingPumps(uint8 enabled)
 313:.\Generated_Source\PSoC4/cyfitter_cfg.c **** {
 528              		.loc 1 313 0
 529              		.cfi_startproc
 530 0000 80B5     		push	{r7, lr}
 531              		.cfi_def_cfa_offset 8
 532              		.cfi_offset 7, -8
 533              		.cfi_offset 14, -4
 534 0002 84B0     		sub	sp, sp, #16
 535              		.cfi_def_cfa_offset 24
 536 0004 00AF     		add	r7, sp, #0
 537              		.cfi_def_cfa_register 7
 538 0006 021C     		mov	r2, r0
 539 0008 FB1D     		add	r3, r7, #7
ARM GAS  C:\Users\owono\AppData\Local\Temp\ccd0Z0VF.s 			page 16


 540 000a 1A70     		strb	r2, [r3]
 314:.\Generated_Source\PSoC4/cyfitter_cfg.c **** 	uint32 regValue = CY_GET_XTND_REG32((void *)(CYREG_SAR_PUMP_CTRL));
 541              		.loc 1 314 0
 542 000c 0B4B     		ldr	r3, .L21
 543 000e 1B68     		ldr	r3, [r3]
 544 0010 FB60     		str	r3, [r7, #12]
 315:.\Generated_Source\PSoC4/cyfitter_cfg.c **** 	if (enabled != 0u)
 545              		.loc 1 315 0
 546 0012 FB1D     		add	r3, r7, #7
 547 0014 1B78     		ldrb	r3, [r3]
 548 0016 002B     		cmp	r3, #0
 549 0018 05D0     		beq	.L19
 316:.\Generated_Source\PSoC4/cyfitter_cfg.c **** 	{
 317:.\Generated_Source\PSoC4/cyfitter_cfg.c **** 		regValue |= 0x80000000u;
 550              		.loc 1 317 0
 551 001a FB68     		ldr	r3, [r7, #12]
 552 001c 8022     		mov	r2, #128
 553 001e 1206     		lsl	r2, r2, #24
 554 0020 1343     		orr	r3, r2
 555 0022 FB60     		str	r3, [r7, #12]
 556 0024 03E0     		b	.L20
 557              	.L19:
 318:.\Generated_Source\PSoC4/cyfitter_cfg.c **** 	}
 319:.\Generated_Source\PSoC4/cyfitter_cfg.c **** 	else
 320:.\Generated_Source\PSoC4/cyfitter_cfg.c **** 	{
 321:.\Generated_Source\PSoC4/cyfitter_cfg.c **** 		regValue &= ~0x80000000u;
 558              		.loc 1 321 0
 559 0026 FB68     		ldr	r3, [r7, #12]
 560 0028 5B00     		lsl	r3, r3, #1
 561 002a 5B08     		lsr	r3, r3, #1
 562 002c FB60     		str	r3, [r7, #12]
 563              	.L20:
 322:.\Generated_Source\PSoC4/cyfitter_cfg.c **** 	}
 323:.\Generated_Source\PSoC4/cyfitter_cfg.c **** 	CY_SET_XTND_REG32((void *)(CYREG_SAR_PUMP_CTRL), regValue);
 564              		.loc 1 323 0
 565 002e 034B     		ldr	r3, .L21
 566 0030 FA68     		ldr	r2, [r7, #12]
 567 0032 1A60     		str	r2, [r3]
 324:.\Generated_Source\PSoC4/cyfitter_cfg.c **** }
 568              		.loc 1 324 0
 569 0034 BD46     		mov	sp, r7
 570 0036 04B0     		add	sp, sp, #16
 571              		@ sp needed
 572 0038 80BD     		pop	{r7, pc}
 573              	.L22:
 574 003a C046     		.align	2
 575              	.L21:
 576 003c 80033A40 		.word	1077543808
 577              		.cfi_endproc
 578              	.LFE9:
 579              		.size	SetAnalogRoutingPumps, .-SetAnalogRoutingPumps
 580              		.section	.psocinit
 581              		.align	2
 582              		.global	cyfitter_cfg
 583              		.code	16
 584              		.thumb_func
 585              		.type	cyfitter_cfg, %function
ARM GAS  C:\Users\owono\AppData\Local\Temp\ccd0Z0VF.s 			page 17


 586              	cyfitter_cfg:
 587              	.LFB10:
 325:.\Generated_Source\PSoC4/cyfitter_cfg.c **** 
 326:.\Generated_Source\PSoC4/cyfitter_cfg.c **** #define CY_AMUX_UNUSED CYREG_CM0_ROM_DWT
 327:.\Generated_Source\PSoC4/cyfitter_cfg.c **** 
 328:.\Generated_Source\PSoC4/cyfitter_cfg.c **** 
 329:.\Generated_Source\PSoC4/cyfitter_cfg.c **** /*******************************************************************************
 330:.\Generated_Source\PSoC4/cyfitter_cfg.c **** * Function Name: cyfitter_cfg
 331:.\Generated_Source\PSoC4/cyfitter_cfg.c **** ********************************************************************************
 332:.\Generated_Source\PSoC4/cyfitter_cfg.c **** * Summary:
 333:.\Generated_Source\PSoC4/cyfitter_cfg.c **** *  This function is called by the start-up code for the selected device. It
 334:.\Generated_Source\PSoC4/cyfitter_cfg.c **** *  performs all of the necessary device configuration based on the design
 335:.\Generated_Source\PSoC4/cyfitter_cfg.c **** *  settings.  This includes settings from the Design Wide Resources (DWR) such
 336:.\Generated_Source\PSoC4/cyfitter_cfg.c **** *  as Clocks and Pins as well as any component configuration that is necessary.
 337:.\Generated_Source\PSoC4/cyfitter_cfg.c **** *
 338:.\Generated_Source\PSoC4/cyfitter_cfg.c **** * Parameters:  
 339:.\Generated_Source\PSoC4/cyfitter_cfg.c **** *   void
 340:.\Generated_Source\PSoC4/cyfitter_cfg.c **** *
 341:.\Generated_Source\PSoC4/cyfitter_cfg.c **** * Return:
 342:.\Generated_Source\PSoC4/cyfitter_cfg.c **** *   void
 343:.\Generated_Source\PSoC4/cyfitter_cfg.c **** *
 344:.\Generated_Source\PSoC4/cyfitter_cfg.c **** *******************************************************************************/
 345:.\Generated_Source\PSoC4/cyfitter_cfg.c **** CY_CFG_SECTION
 346:.\Generated_Source\PSoC4/cyfitter_cfg.c **** void cyfitter_cfg(void)
 347:.\Generated_Source\PSoC4/cyfitter_cfg.c **** {
 588              		.loc 1 347 0
 589              		.cfi_startproc
 590 0170 80B5     		push	{r7, lr}
 591              		.cfi_def_cfa_offset 8
 592              		.cfi_offset 7, -8
 593              		.cfi_offset 14, -4
 594 0172 82B0     		sub	sp, sp, #8
 595              		.cfi_def_cfa_offset 16
 596 0174 00AF     		add	r7, sp, #0
 597              		.cfi_def_cfa_register 7
 348:.\Generated_Source\PSoC4/cyfitter_cfg.c **** 	/* Disable interrupts by default. Let user enable if/when they want. */
 349:.\Generated_Source\PSoC4/cyfitter_cfg.c **** 	CyGlobalIntDisable;
 598              		.loc 1 349 0
 599              	@ 349 ".\Generated_Source\PSoC4\cyfitter_cfg.c" 1
 600 0176 72B6     		CPSID   i
 601              	@ 0 "" 2
 350:.\Generated_Source\PSoC4/cyfitter_cfg.c **** 
 351:.\Generated_Source\PSoC4/cyfitter_cfg.c **** 	CY_SET_XTND_REG32((void CYFAR *)(CYREG_BLE_BLESS_LL_DSM_CTRL), 0x00000000u);
 602              		.loc 1 351 0
 603              		.code	16
 604 0178 4E4B     		ldr	r3, .L26
 605 017a 0022     		mov	r2, #0
 606 017c 1A60     		str	r2, [r3]
 352:.\Generated_Source\PSoC4/cyfitter_cfg.c **** 
 353:.\Generated_Source\PSoC4/cyfitter_cfg.c **** 	/* Enable the clock in the interrupt controller for the routed interrupts */
 354:.\Generated_Source\PSoC4/cyfitter_cfg.c **** 	CY_SET_REG8((void *)CYREG_UDB_UDBIF_INT_CLK_CTL, 0x01u);
 607              		.loc 1 354 0
 608 017e 4E4B     		ldr	r3, .L26+4
 609 0180 0122     		mov	r2, #1
 610 0182 1A70     		strb	r2, [r3]
 611              	.LBB3:
 355:.\Generated_Source\PSoC4/cyfitter_cfg.c **** 	{
ARM GAS  C:\Users\owono\AppData\Local\Temp\ccd0Z0VF.s 			page 18


 356:.\Generated_Source\PSoC4/cyfitter_cfg.c **** 		static const uint32 CYCODE cy_cfg_addr_table[] = {
 357:.\Generated_Source\PSoC4/cyfitter_cfg.c **** 			0x400F0001u, /* Base address: 0x400F0000 Count: 1 */
 358:.\Generated_Source\PSoC4/cyfitter_cfg.c **** 			0x400F3006u, /* Base address: 0x400F3000 Count: 6 */
 359:.\Generated_Source\PSoC4/cyfitter_cfg.c **** 			0x400F3102u, /* Base address: 0x400F3100 Count: 2 */
 360:.\Generated_Source\PSoC4/cyfitter_cfg.c **** 			0x400F324Au, /* Base address: 0x400F3200 Count: 74 */
 361:.\Generated_Source\PSoC4/cyfitter_cfg.c **** 			0x400F3333u, /* Base address: 0x400F3300 Count: 51 */
 362:.\Generated_Source\PSoC4/cyfitter_cfg.c **** 			0x400F4110u, /* Base address: 0x400F4100 Count: 16 */
 363:.\Generated_Source\PSoC4/cyfitter_cfg.c **** 			0x400F420Au, /* Base address: 0x400F4200 Count: 10 */
 364:.\Generated_Source\PSoC4/cyfitter_cfg.c **** 			0x400F430Eu, /* Base address: 0x400F4300 Count: 14 */
 365:.\Generated_Source\PSoC4/cyfitter_cfg.c **** 			0x400F6002u, /* Base address: 0x400F6000 Count: 2 */
 366:.\Generated_Source\PSoC4/cyfitter_cfg.c **** 		};
 367:.\Generated_Source\PSoC4/cyfitter_cfg.c **** 
 368:.\Generated_Source\PSoC4/cyfitter_cfg.c **** 		static const cy_cfg_addrvalue_t CYCODE cy_cfg_data_table[] = {
 369:.\Generated_Source\PSoC4/cyfitter_cfg.c **** 			{0x82u, 0x0Du},
 370:.\Generated_Source\PSoC4/cyfitter_cfg.c **** 			{0xBAu, 0x30u},
 371:.\Generated_Source\PSoC4/cyfitter_cfg.c **** 			{0xBBu, 0x03u},
 372:.\Generated_Source\PSoC4/cyfitter_cfg.c **** 			{0xD8u, 0x04u},
 373:.\Generated_Source\PSoC4/cyfitter_cfg.c **** 			{0xD9u, 0x04u},
 374:.\Generated_Source\PSoC4/cyfitter_cfg.c **** 			{0xDCu, 0x13u},
 375:.\Generated_Source\PSoC4/cyfitter_cfg.c **** 			{0xDFu, 0x01u},
 376:.\Generated_Source\PSoC4/cyfitter_cfg.c **** 			{0x1Cu, 0x08u},
 377:.\Generated_Source\PSoC4/cyfitter_cfg.c **** 			{0x27u, 0x80u},
 378:.\Generated_Source\PSoC4/cyfitter_cfg.c **** 			{0x00u, 0x01u},
 379:.\Generated_Source\PSoC4/cyfitter_cfg.c **** 			{0x0Au, 0x09u},
 380:.\Generated_Source\PSoC4/cyfitter_cfg.c **** 			{0x0Cu, 0x02u},
 381:.\Generated_Source\PSoC4/cyfitter_cfg.c **** 			{0x0Eu, 0x04u},
 382:.\Generated_Source\PSoC4/cyfitter_cfg.c **** 			{0x16u, 0x16u},
 383:.\Generated_Source\PSoC4/cyfitter_cfg.c **** 			{0x1Cu, 0x10u},
 384:.\Generated_Source\PSoC4/cyfitter_cfg.c **** 			{0x23u, 0x01u},
 385:.\Generated_Source\PSoC4/cyfitter_cfg.c **** 			{0x2Eu, 0x03u},
 386:.\Generated_Source\PSoC4/cyfitter_cfg.c **** 			{0x30u, 0x08u},
 387:.\Generated_Source\PSoC4/cyfitter_cfg.c **** 			{0x32u, 0x03u},
 388:.\Generated_Source\PSoC4/cyfitter_cfg.c **** 			{0x33u, 0x01u},
 389:.\Generated_Source\PSoC4/cyfitter_cfg.c **** 			{0x34u, 0x04u},
 390:.\Generated_Source\PSoC4/cyfitter_cfg.c **** 			{0x36u, 0x10u},
 391:.\Generated_Source\PSoC4/cyfitter_cfg.c **** 			{0x3Eu, 0x10u},
 392:.\Generated_Source\PSoC4/cyfitter_cfg.c **** 			{0x40u, 0x30u},
 393:.\Generated_Source\PSoC4/cyfitter_cfg.c **** 			{0x41u, 0x05u},
 394:.\Generated_Source\PSoC4/cyfitter_cfg.c **** 			{0x49u, 0xFFu},
 395:.\Generated_Source\PSoC4/cyfitter_cfg.c **** 			{0x4Au, 0xFFu},
 396:.\Generated_Source\PSoC4/cyfitter_cfg.c **** 			{0x4Bu, 0xFFu},
 397:.\Generated_Source\PSoC4/cyfitter_cfg.c **** 			{0x4Du, 0xA0u},
 398:.\Generated_Source\PSoC4/cyfitter_cfg.c **** 			{0x4Fu, 0x04u},
 399:.\Generated_Source\PSoC4/cyfitter_cfg.c **** 			{0x50u, 0x18u},
 400:.\Generated_Source\PSoC4/cyfitter_cfg.c **** 			{0x52u, 0x80u},
 401:.\Generated_Source\PSoC4/cyfitter_cfg.c **** 			{0x54u, 0x05u},
 402:.\Generated_Source\PSoC4/cyfitter_cfg.c **** 			{0x56u, 0x04u},
 403:.\Generated_Source\PSoC4/cyfitter_cfg.c **** 			{0x58u, 0x0Bu},
 404:.\Generated_Source\PSoC4/cyfitter_cfg.c **** 			{0x59u, 0x0Au},
 405:.\Generated_Source\PSoC4/cyfitter_cfg.c **** 			{0x5Au, 0x0Bu},
 406:.\Generated_Source\PSoC4/cyfitter_cfg.c **** 			{0x5Bu, 0x0Bu},
 407:.\Generated_Source\PSoC4/cyfitter_cfg.c **** 			{0x5Cu, 0x99u},
 408:.\Generated_Source\PSoC4/cyfitter_cfg.c **** 			{0x5Du, 0x99u},
 409:.\Generated_Source\PSoC4/cyfitter_cfg.c **** 			{0x5Fu, 0x01u},
 410:.\Generated_Source\PSoC4/cyfitter_cfg.c **** 			{0x60u, 0x40u},
 411:.\Generated_Source\PSoC4/cyfitter_cfg.c **** 			{0x62u, 0xC0u},
 412:.\Generated_Source\PSoC4/cyfitter_cfg.c **** 			{0x64u, 0x40u},
ARM GAS  C:\Users\owono\AppData\Local\Temp\ccd0Z0VF.s 			page 19


 413:.\Generated_Source\PSoC4/cyfitter_cfg.c **** 			{0x65u, 0x40u},
 414:.\Generated_Source\PSoC4/cyfitter_cfg.c **** 			{0x66u, 0xC0u},
 415:.\Generated_Source\PSoC4/cyfitter_cfg.c **** 			{0x68u, 0xC0u},
 416:.\Generated_Source\PSoC4/cyfitter_cfg.c **** 			{0x6Au, 0xC0u},
 417:.\Generated_Source\PSoC4/cyfitter_cfg.c **** 			{0x6Cu, 0xC0u},
 418:.\Generated_Source\PSoC4/cyfitter_cfg.c **** 			{0x6Eu, 0xC0u},
 419:.\Generated_Source\PSoC4/cyfitter_cfg.c **** 			{0x88u, 0x02u},
 420:.\Generated_Source\PSoC4/cyfitter_cfg.c **** 			{0xA0u, 0x03u},
 421:.\Generated_Source\PSoC4/cyfitter_cfg.c **** 			{0xB2u, 0x01u},
 422:.\Generated_Source\PSoC4/cyfitter_cfg.c **** 			{0xB6u, 0x02u},
 423:.\Generated_Source\PSoC4/cyfitter_cfg.c **** 			{0xC0u, 0x30u},
 424:.\Generated_Source\PSoC4/cyfitter_cfg.c **** 			{0xC1u, 0x05u},
 425:.\Generated_Source\PSoC4/cyfitter_cfg.c **** 			{0xC5u, 0xD0u},
 426:.\Generated_Source\PSoC4/cyfitter_cfg.c **** 			{0xC6u, 0x01u},
 427:.\Generated_Source\PSoC4/cyfitter_cfg.c **** 			{0xC7u, 0x20u},
 428:.\Generated_Source\PSoC4/cyfitter_cfg.c **** 			{0xC8u, 0x26u},
 429:.\Generated_Source\PSoC4/cyfitter_cfg.c **** 			{0xC9u, 0xFFu},
 430:.\Generated_Source\PSoC4/cyfitter_cfg.c **** 			{0xCAu, 0xFFu},
 431:.\Generated_Source\PSoC4/cyfitter_cfg.c **** 			{0xCBu, 0xFFu},
 432:.\Generated_Source\PSoC4/cyfitter_cfg.c **** 			{0xCDu, 0xAFu},
 433:.\Generated_Source\PSoC4/cyfitter_cfg.c **** 			{0xCEu, 0x0Fu},
 434:.\Generated_Source\PSoC4/cyfitter_cfg.c **** 			{0xCFu, 0x04u},
 435:.\Generated_Source\PSoC4/cyfitter_cfg.c **** 			{0xD0u, 0x18u},
 436:.\Generated_Source\PSoC4/cyfitter_cfg.c **** 			{0xD6u, 0x08u},
 437:.\Generated_Source\PSoC4/cyfitter_cfg.c **** 			{0xD8u, 0x0Bu},
 438:.\Generated_Source\PSoC4/cyfitter_cfg.c **** 			{0xDAu, 0x0Bu},
 439:.\Generated_Source\PSoC4/cyfitter_cfg.c **** 			{0xDBu, 0x04u},
 440:.\Generated_Source\PSoC4/cyfitter_cfg.c **** 			{0xDCu, 0x09u},
 441:.\Generated_Source\PSoC4/cyfitter_cfg.c **** 			{0xDDu, 0x99u},
 442:.\Generated_Source\PSoC4/cyfitter_cfg.c **** 			{0xDFu, 0x01u},
 443:.\Generated_Source\PSoC4/cyfitter_cfg.c **** 			{0xE0u, 0x40u},
 444:.\Generated_Source\PSoC4/cyfitter_cfg.c **** 			{0xE2u, 0xC0u},
 445:.\Generated_Source\PSoC4/cyfitter_cfg.c **** 			{0xE4u, 0x40u},
 446:.\Generated_Source\PSoC4/cyfitter_cfg.c **** 			{0xE5u, 0x40u},
 447:.\Generated_Source\PSoC4/cyfitter_cfg.c **** 			{0xE6u, 0xC0u},
 448:.\Generated_Source\PSoC4/cyfitter_cfg.c **** 			{0xE8u, 0xC0u},
 449:.\Generated_Source\PSoC4/cyfitter_cfg.c **** 			{0xEAu, 0xC0u},
 450:.\Generated_Source\PSoC4/cyfitter_cfg.c **** 			{0xECu, 0xC0u},
 451:.\Generated_Source\PSoC4/cyfitter_cfg.c **** 			{0xEEu, 0xC0u},
 452:.\Generated_Source\PSoC4/cyfitter_cfg.c **** 			{0x00u, 0x10u},
 453:.\Generated_Source\PSoC4/cyfitter_cfg.c **** 			{0x05u, 0x01u},
 454:.\Generated_Source\PSoC4/cyfitter_cfg.c **** 			{0x06u, 0x01u},
 455:.\Generated_Source\PSoC4/cyfitter_cfg.c **** 			{0x07u, 0x08u},
 456:.\Generated_Source\PSoC4/cyfitter_cfg.c **** 			{0x0Du, 0x48u},
 457:.\Generated_Source\PSoC4/cyfitter_cfg.c **** 			{0x10u, 0x80u},
 458:.\Generated_Source\PSoC4/cyfitter_cfg.c **** 			{0x17u, 0x80u},
 459:.\Generated_Source\PSoC4/cyfitter_cfg.c **** 			{0x18u, 0x10u},
 460:.\Generated_Source\PSoC4/cyfitter_cfg.c **** 			{0x19u, 0x80u},
 461:.\Generated_Source\PSoC4/cyfitter_cfg.c **** 			{0x1Du, 0x09u},
 462:.\Generated_Source\PSoC4/cyfitter_cfg.c **** 			{0x1Eu, 0x08u},
 463:.\Generated_Source\PSoC4/cyfitter_cfg.c **** 			{0x1Fu, 0x80u},
 464:.\Generated_Source\PSoC4/cyfitter_cfg.c **** 			{0x27u, 0x10u},
 465:.\Generated_Source\PSoC4/cyfitter_cfg.c **** 			{0x2Fu, 0x80u},
 466:.\Generated_Source\PSoC4/cyfitter_cfg.c **** 			{0x41u, 0x08u},
 467:.\Generated_Source\PSoC4/cyfitter_cfg.c **** 			{0x45u, 0x08u},
 468:.\Generated_Source\PSoC4/cyfitter_cfg.c **** 			{0x4Au, 0x02u},
 469:.\Generated_Source\PSoC4/cyfitter_cfg.c **** 			{0x4Bu, 0x01u},
ARM GAS  C:\Users\owono\AppData\Local\Temp\ccd0Z0VF.s 			page 20


 470:.\Generated_Source\PSoC4/cyfitter_cfg.c **** 			{0x4Eu, 0x02u},
 471:.\Generated_Source\PSoC4/cyfitter_cfg.c **** 			{0x50u, 0x80u},
 472:.\Generated_Source\PSoC4/cyfitter_cfg.c **** 			{0x51u, 0x40u},
 473:.\Generated_Source\PSoC4/cyfitter_cfg.c **** 			{0x52u, 0x03u},
 474:.\Generated_Source\PSoC4/cyfitter_cfg.c **** 			{0x5Au, 0x40u},
 475:.\Generated_Source\PSoC4/cyfitter_cfg.c **** 			{0x5Du, 0x80u},
 476:.\Generated_Source\PSoC4/cyfitter_cfg.c **** 			{0x5Eu, 0x08u},
 477:.\Generated_Source\PSoC4/cyfitter_cfg.c **** 			{0x5Fu, 0x01u},
 478:.\Generated_Source\PSoC4/cyfitter_cfg.c **** 			{0x62u, 0x80u},
 479:.\Generated_Source\PSoC4/cyfitter_cfg.c **** 			{0x64u, 0x80u},
 480:.\Generated_Source\PSoC4/cyfitter_cfg.c **** 			{0x77u, 0x80u},
 481:.\Generated_Source\PSoC4/cyfitter_cfg.c **** 			{0x7Au, 0x80u},
 482:.\Generated_Source\PSoC4/cyfitter_cfg.c **** 			{0x7Du, 0x08u},
 483:.\Generated_Source\PSoC4/cyfitter_cfg.c **** 			{0x7Eu, 0x80u},
 484:.\Generated_Source\PSoC4/cyfitter_cfg.c **** 			{0x80u, 0x80u},
 485:.\Generated_Source\PSoC4/cyfitter_cfg.c **** 			{0x81u, 0x04u},
 486:.\Generated_Source\PSoC4/cyfitter_cfg.c **** 			{0x83u, 0x88u},
 487:.\Generated_Source\PSoC4/cyfitter_cfg.c **** 			{0x8Fu, 0x10u},
 488:.\Generated_Source\PSoC4/cyfitter_cfg.c **** 			{0x92u, 0x40u},
 489:.\Generated_Source\PSoC4/cyfitter_cfg.c **** 			{0xACu, 0x04u},
 490:.\Generated_Source\PSoC4/cyfitter_cfg.c **** 			{0xB3u, 0x80u},
 491:.\Generated_Source\PSoC4/cyfitter_cfg.c **** 			{0xB6u, 0x40u},
 492:.\Generated_Source\PSoC4/cyfitter_cfg.c **** 			{0xC0u, 0xD2u},
 493:.\Generated_Source\PSoC4/cyfitter_cfg.c **** 			{0xC2u, 0xA0u},
 494:.\Generated_Source\PSoC4/cyfitter_cfg.c **** 			{0xC4u, 0x88u},
 495:.\Generated_Source\PSoC4/cyfitter_cfg.c **** 			{0xCAu, 0x80u},
 496:.\Generated_Source\PSoC4/cyfitter_cfg.c **** 			{0xD0u, 0x42u},
 497:.\Generated_Source\PSoC4/cyfitter_cfg.c **** 			{0xD2u, 0x18u},
 498:.\Generated_Source\PSoC4/cyfitter_cfg.c **** 			{0xD6u, 0xD8u},
 499:.\Generated_Source\PSoC4/cyfitter_cfg.c **** 			{0xD8u, 0x88u},
 500:.\Generated_Source\PSoC4/cyfitter_cfg.c **** 			{0xDEu, 0xC1u},
 501:.\Generated_Source\PSoC4/cyfitter_cfg.c **** 			{0xE0u, 0x04u},
 502:.\Generated_Source\PSoC4/cyfitter_cfg.c **** 			{0xE6u, 0x40u},
 503:.\Generated_Source\PSoC4/cyfitter_cfg.c **** 			{0x07u, 0x10u},
 504:.\Generated_Source\PSoC4/cyfitter_cfg.c **** 			{0x52u, 0x20u},
 505:.\Generated_Source\PSoC4/cyfitter_cfg.c **** 			{0x59u, 0x80u},
 506:.\Generated_Source\PSoC4/cyfitter_cfg.c **** 			{0x67u, 0x02u},
 507:.\Generated_Source\PSoC4/cyfitter_cfg.c **** 			{0x6Fu, 0x08u},
 508:.\Generated_Source\PSoC4/cyfitter_cfg.c **** 			{0x83u, 0x19u},
 509:.\Generated_Source\PSoC4/cyfitter_cfg.c **** 			{0x8Du, 0x80u},
 510:.\Generated_Source\PSoC4/cyfitter_cfg.c **** 			{0xA2u, 0x20u},
 511:.\Generated_Source\PSoC4/cyfitter_cfg.c **** 			{0xAEu, 0x20u},
 512:.\Generated_Source\PSoC4/cyfitter_cfg.c **** 			{0xC0u, 0x20u},
 513:.\Generated_Source\PSoC4/cyfitter_cfg.c **** 			{0xD4u, 0xA0u},
 514:.\Generated_Source\PSoC4/cyfitter_cfg.c **** 			{0xD6u, 0x80u},
 515:.\Generated_Source\PSoC4/cyfitter_cfg.c **** 			{0xDAu, 0x80u},
 516:.\Generated_Source\PSoC4/cyfitter_cfg.c **** 			{0xE0u, 0x20u},
 517:.\Generated_Source\PSoC4/cyfitter_cfg.c **** 			{0xE6u, 0xA0u},
 518:.\Generated_Source\PSoC4/cyfitter_cfg.c **** 			{0xEEu, 0x40u},
 519:.\Generated_Source\PSoC4/cyfitter_cfg.c **** 			{0x24u, 0x20u},
 520:.\Generated_Source\PSoC4/cyfitter_cfg.c **** 			{0x40u, 0x20u},
 521:.\Generated_Source\PSoC4/cyfitter_cfg.c **** 			{0x46u, 0x01u},
 522:.\Generated_Source\PSoC4/cyfitter_cfg.c **** 			{0x4Cu, 0x20u},
 523:.\Generated_Source\PSoC4/cyfitter_cfg.c **** 			{0x6Au, 0x40u},
 524:.\Generated_Source\PSoC4/cyfitter_cfg.c **** 			{0x6Fu, 0x01u},
 525:.\Generated_Source\PSoC4/cyfitter_cfg.c **** 			{0xC8u, 0x01u},
 526:.\Generated_Source\PSoC4/cyfitter_cfg.c **** 			{0xD0u, 0x06u},
ARM GAS  C:\Users\owono\AppData\Local\Temp\ccd0Z0VF.s 			page 21


 527:.\Generated_Source\PSoC4/cyfitter_cfg.c **** 			{0xD2u, 0x01u},
 528:.\Generated_Source\PSoC4/cyfitter_cfg.c **** 			{0xDAu, 0x03u},
 529:.\Generated_Source\PSoC4/cyfitter_cfg.c **** 			{0x10u, 0x20u},
 530:.\Generated_Source\PSoC4/cyfitter_cfg.c **** 			{0x14u, 0x20u},
 531:.\Generated_Source\PSoC4/cyfitter_cfg.c **** 			{0x82u, 0x40u},
 532:.\Generated_Source\PSoC4/cyfitter_cfg.c **** 			{0x8Eu, 0x01u},
 533:.\Generated_Source\PSoC4/cyfitter_cfg.c **** 			{0x96u, 0x40u},
 534:.\Generated_Source\PSoC4/cyfitter_cfg.c **** 			{0x9Cu, 0x20u},
 535:.\Generated_Source\PSoC4/cyfitter_cfg.c **** 			{0x9Eu, 0x01u},
 536:.\Generated_Source\PSoC4/cyfitter_cfg.c **** 			{0xA4u, 0x20u},
 537:.\Generated_Source\PSoC4/cyfitter_cfg.c **** 			{0xB3u, 0x01u},
 538:.\Generated_Source\PSoC4/cyfitter_cfg.c **** 			{0xB4u, 0x10u},
 539:.\Generated_Source\PSoC4/cyfitter_cfg.c **** 			{0xC4u, 0x0Cu},
 540:.\Generated_Source\PSoC4/cyfitter_cfg.c **** 			{0xE4u, 0x02u},
 541:.\Generated_Source\PSoC4/cyfitter_cfg.c **** 			{0xECu, 0x04u},
 542:.\Generated_Source\PSoC4/cyfitter_cfg.c **** 			{0xEEu, 0x02u},
 543:.\Generated_Source\PSoC4/cyfitter_cfg.c **** 			{0x10u, 0x0Au},
 544:.\Generated_Source\PSoC4/cyfitter_cfg.c **** 			{0x11u, 0x01u},
 545:.\Generated_Source\PSoC4/cyfitter_cfg.c **** 		};
 546:.\Generated_Source\PSoC4/cyfitter_cfg.c **** 
 547:.\Generated_Source\PSoC4/cyfitter_cfg.c **** 
 548:.\Generated_Source\PSoC4/cyfitter_cfg.c **** 
 549:.\Generated_Source\PSoC4/cyfitter_cfg.c **** 		CYPACKED typedef struct {
 550:.\Generated_Source\PSoC4/cyfitter_cfg.c **** 			void CYFAR *address;
 551:.\Generated_Source\PSoC4/cyfitter_cfg.c **** 			uint16 size;
 552:.\Generated_Source\PSoC4/cyfitter_cfg.c **** 		} CYPACKED_ATTR cfg_memset_t;
 553:.\Generated_Source\PSoC4/cyfitter_cfg.c **** 
 554:.\Generated_Source\PSoC4/cyfitter_cfg.c **** 		static const cfg_memset_t CYCODE cfg_memset_list [] = {
 555:.\Generated_Source\PSoC4/cyfitter_cfg.c **** 			/* address, size */
 556:.\Generated_Source\PSoC4/cyfitter_cfg.c **** 			{(void CYFAR *)(CYDEV_UDB_P0_U0_BASE), 1024u},
 557:.\Generated_Source\PSoC4/cyfitter_cfg.c **** 			{(void CYFAR *)(CYDEV_UDB_DSI0_BASE), 1024u},
 558:.\Generated_Source\PSoC4/cyfitter_cfg.c **** 		};
 559:.\Generated_Source\PSoC4/cyfitter_cfg.c **** 
 560:.\Generated_Source\PSoC4/cyfitter_cfg.c **** 		uint8 CYDATA i;
 561:.\Generated_Source\PSoC4/cyfitter_cfg.c **** 
 562:.\Generated_Source\PSoC4/cyfitter_cfg.c **** 		/* Zero out critical memory blocks before beginning configuration */
 563:.\Generated_Source\PSoC4/cyfitter_cfg.c **** 		for (i = 0u; i < (sizeof(cfg_memset_list)/sizeof(cfg_memset_list[0])); i++)
 612              		.loc 1 563 0
 613 0184 FB1D     		add	r3, r7, #7
 614 0186 0022     		mov	r2, #0
 615 0188 1A70     		strb	r2, [r3]
 616 018a 23E0     		b	.L24
 617              	.L25:
 618              	.LBB4:
 564:.\Generated_Source\PSoC4/cyfitter_cfg.c **** 		{
 565:.\Generated_Source\PSoC4/cyfitter_cfg.c **** 			const cfg_memset_t CYCODE * CYDATA ms = &cfg_memset_list[i];
 619              		.loc 1 565 0 discriminator 3
 620 018c FB1D     		add	r3, r7, #7
 621 018e 1A78     		ldrb	r2, [r3]
 622 0190 131C     		mov	r3, r2
 623 0192 5B00     		lsl	r3, r3, #1
 624 0194 9B18     		add	r3, r3, r2
 625 0196 5B00     		lsl	r3, r3, #1
 626 0198 484A     		ldr	r2, .L26+8
 627 019a 9B18     		add	r3, r3, r2
 628 019c 3B60     		str	r3, [r7]
 566:.\Generated_Source\PSoC4/cyfitter_cfg.c **** 			CYMEMZERO(ms->address, (size_t)(uint32)(ms->size));
ARM GAS  C:\Users\owono\AppData\Local\Temp\ccd0Z0VF.s 			page 22


 629              		.loc 1 566 0 discriminator 3
 630 019e 3B68     		ldr	r3, [r7]
 631 01a0 1A78     		ldrb	r2, [r3]
 632 01a2 5978     		ldrb	r1, [r3, #1]
 633 01a4 0902     		lsl	r1, r1, #8
 634 01a6 0A43     		orr	r2, r1
 635 01a8 9978     		ldrb	r1, [r3, #2]
 636 01aa 0904     		lsl	r1, r1, #16
 637 01ac 0A43     		orr	r2, r1
 638 01ae DB78     		ldrb	r3, [r3, #3]
 639 01b0 1B06     		lsl	r3, r3, #24
 640 01b2 1343     		orr	r3, r2
 641 01b4 191C     		mov	r1, r3
 642 01b6 3B68     		ldr	r3, [r7]
 643 01b8 1A79     		ldrb	r2, [r3, #4]
 644 01ba 5B79     		ldrb	r3, [r3, #5]
 645 01bc 1B02     		lsl	r3, r3, #8
 646 01be 1343     		orr	r3, r2
 647 01c0 9BB2     		uxth	r3, r3
 648 01c2 081C     		mov	r0, r1
 649 01c4 191C     		mov	r1, r3
 650 01c6 FFF7FEFF 		bl	CYMEMZERO
 651              	.LBE4:
 563:.\Generated_Source\PSoC4/cyfitter_cfg.c **** 		{
 652              		.loc 1 563 0 discriminator 3
 653 01ca FB1D     		add	r3, r7, #7
 654 01cc 1A78     		ldrb	r2, [r3]
 655 01ce FB1D     		add	r3, r7, #7
 656 01d0 0132     		add	r2, r2, #1
 657 01d2 1A70     		strb	r2, [r3]
 658              	.L24:
 563:.\Generated_Source\PSoC4/cyfitter_cfg.c **** 		{
 659              		.loc 1 563 0 is_stmt 0 discriminator 1
 660 01d4 FB1D     		add	r3, r7, #7
 661 01d6 1B78     		ldrb	r3, [r3]
 662 01d8 012B     		cmp	r3, #1
 663 01da D7D9     		bls	.L25
 567:.\Generated_Source\PSoC4/cyfitter_cfg.c **** 		}
 568:.\Generated_Source\PSoC4/cyfitter_cfg.c **** 
 569:.\Generated_Source\PSoC4/cyfitter_cfg.c **** 		cfg_write_bytes32(cy_cfg_addr_table, cy_cfg_data_table);
 664              		.loc 1 569 0 is_stmt 1
 665 01dc 384A     		ldr	r2, .L26+12
 666 01de 394B     		ldr	r3, .L26+16
 667 01e0 101C     		mov	r0, r2
 668 01e2 191C     		mov	r1, r3
 669 01e4 FFF7FEFF 		bl	cfg_write_bytes32
 570:.\Generated_Source\PSoC4/cyfitter_cfg.c **** 
 571:.\Generated_Source\PSoC4/cyfitter_cfg.c **** 		/* Perform normal device configuration. Order is not critical for these items. */
 572:.\Generated_Source\PSoC4/cyfitter_cfg.c **** 		CY_SET_XTND_REG16((void CYFAR *)(CYREG_UDB_BCTL0_DRV), 0x0A00u);
 670              		.loc 1 572 0
 671 01e8 374B     		ldr	r3, .L26+20
 672 01ea A022     		mov	r2, #160
 673 01ec 1201     		lsl	r2, r2, #4
 674 01ee 1A80     		strh	r2, [r3]
 573:.\Generated_Source\PSoC4/cyfitter_cfg.c **** 		CY_SET_XTND_REG8((void CYFAR *)(CYREG_UDB_BCTL0_DRV + 0x2u), 0x01u);
 675              		.loc 1 573 0
 676 01f0 364B     		ldr	r3, .L26+24
ARM GAS  C:\Users\owono\AppData\Local\Temp\ccd0Z0VF.s 			page 23


 677 01f2 0122     		mov	r2, #1
 678 01f4 1A70     		strb	r2, [r3]
 574:.\Generated_Source\PSoC4/cyfitter_cfg.c **** 
 575:.\Generated_Source\PSoC4/cyfitter_cfg.c **** 		/* HSIOM Starting address: CYDEV_HSIOM_BASE */
 576:.\Generated_Source\PSoC4/cyfitter_cfg.c **** 		CY_SET_XTND_REG32((void CYFAR *)(CYREG_HSIOM_PORT_SEL1), 0x30903300u);
 679              		.loc 1 576 0
 680 01f6 364B     		ldr	r3, .L26+28
 681 01f8 364A     		ldr	r2, .L26+32
 682 01fa 1A60     		str	r2, [r3]
 577:.\Generated_Source\PSoC4/cyfitter_cfg.c **** 
 578:.\Generated_Source\PSoC4/cyfitter_cfg.c **** 		/* FORCED_HSIOM Starting address: CYDEV_HSIOM_PORT_SEL0 */
 579:.\Generated_Source\PSoC4/cyfitter_cfg.c **** 		CY_SET_XTND_REG32((void CYFAR *)(CYREG_HSIOM_PORT_SEL0), 0x00000000u);
 683              		.loc 1 579 0
 684 01fc 364B     		ldr	r3, .L26+36
 685 01fe 0022     		mov	r2, #0
 686 0200 1A60     		str	r2, [r3]
 580:.\Generated_Source\PSoC4/cyfitter_cfg.c **** 
 581:.\Generated_Source\PSoC4/cyfitter_cfg.c **** 		/* IOPINS0_0 Starting address: CYDEV_GPIO_PRT0_PC */
 582:.\Generated_Source\PSoC4/cyfitter_cfg.c **** 		CY_SET_XTND_REG32((void CYFAR *)(CYREG_GPIO_PRT0_PC), 0x00000000u);
 687              		.loc 1 582 0
 688 0202 364B     		ldr	r3, .L26+40
 689 0204 0022     		mov	r2, #0
 690 0206 1A60     		str	r2, [r3]
 583:.\Generated_Source\PSoC4/cyfitter_cfg.c **** 
 584:.\Generated_Source\PSoC4/cyfitter_cfg.c **** 		/* UDB_PA_1 Starting address: CYDEV_UDB_PA1_BASE */
 585:.\Generated_Source\PSoC4/cyfitter_cfg.c **** 		CY_SET_XTND_REG32((void CYFAR *)(CYDEV_UDB_PA1_BASE), 0x00990004u);
 691              		.loc 1 585 0
 692 0208 354B     		ldr	r3, .L26+44
 693 020a 364A     		ldr	r2, .L26+48
 694 020c 1A60     		str	r2, [r3]
 586:.\Generated_Source\PSoC4/cyfitter_cfg.c **** 		CY_SET_XTND_REG32((void CYFAR *)(CYREG_UDB_PA1_CFG4), 0x00080000u);
 695              		.loc 1 586 0
 696 020e 364B     		ldr	r3, .L26+52
 697 0210 8022     		mov	r2, #128
 698 0212 1203     		lsl	r2, r2, #12
 699 0214 1A60     		str	r2, [r3]
 587:.\Generated_Source\PSoC4/cyfitter_cfg.c **** 		CY_SET_XTND_REG32((void CYFAR *)(CYREG_UDB_PA1_CFG8), 0x40850000u);
 700              		.loc 1 587 0
 701 0216 354B     		ldr	r3, .L26+56
 702 0218 354A     		ldr	r2, .L26+60
 703 021a 1A60     		str	r2, [r3]
 588:.\Generated_Source\PSoC4/cyfitter_cfg.c **** 
 589:.\Generated_Source\PSoC4/cyfitter_cfg.c **** 		/* UDB_PA_2 Starting address: CYDEV_UDB_PA2_BASE */
 590:.\Generated_Source\PSoC4/cyfitter_cfg.c **** 		CY_SET_XTND_REG32((void CYFAR *)(CYDEV_UDB_PA2_BASE), 0x00990000u);
 704              		.loc 1 590 0
 705 021c 354B     		ldr	r3, .L26+64
 706 021e 9922     		mov	r2, #153
 707 0220 1204     		lsl	r2, r2, #16
 708 0222 1A60     		str	r2, [r3]
 591:.\Generated_Source\PSoC4/cyfitter_cfg.c **** 
 592:.\Generated_Source\PSoC4/cyfitter_cfg.c **** 		/* TCPWM_CNT0 Starting address: CYDEV_TCPWM_CNT0_TR_CTRL0 */
 593:.\Generated_Source\PSoC4/cyfitter_cfg.c **** 		CY_SET_XTND_REG32((void CYFAR *)(CYREG_TCPWM_CNT0_TR_CTRL0), 0x000007F7u);
 709              		.loc 1 593 0
 710 0224 344B     		ldr	r3, .L26+68
 711 0226 354A     		ldr	r2, .L26+72
 712 0228 1A60     		str	r2, [r3]
 594:.\Generated_Source\PSoC4/cyfitter_cfg.c **** 
ARM GAS  C:\Users\owono\AppData\Local\Temp\ccd0Z0VF.s 			page 24


 595:.\Generated_Source\PSoC4/cyfitter_cfg.c **** 		/* TCPWM_CNT1 Starting address: CYDEV_TCPWM_CNT1_TR_CTRL0 */
 596:.\Generated_Source\PSoC4/cyfitter_cfg.c **** 		CY_SET_XTND_REG32((void CYFAR *)(CYREG_TCPWM_CNT1_TR_CTRL0), 0x000007E7u);
 713              		.loc 1 596 0
 714 022a 354B     		ldr	r3, .L26+76
 715 022c 354A     		ldr	r2, .L26+80
 716 022e 1A60     		str	r2, [r3]
 597:.\Generated_Source\PSoC4/cyfitter_cfg.c **** 
 598:.\Generated_Source\PSoC4/cyfitter_cfg.c **** 		/* TCPWM_CNT2 Starting address: CYDEV_TCPWM_CNT2_TR_CTRL0 */
 599:.\Generated_Source\PSoC4/cyfitter_cfg.c **** 		CY_SET_XTND_REG32((void CYFAR *)(CYREG_TCPWM_CNT2_TR_CTRL0), 0x00000787u);
 717              		.loc 1 599 0
 718 0230 354B     		ldr	r3, .L26+84
 719 0232 364A     		ldr	r2, .L26+88
 720 0234 1A60     		str	r2, [r3]
 600:.\Generated_Source\PSoC4/cyfitter_cfg.c **** 
 601:.\Generated_Source\PSoC4/cyfitter_cfg.c **** 		/* TCPWM_CNT3 Starting address: CYDEV_TCPWM_CNT3_TR_CTRL0 */
 602:.\Generated_Source\PSoC4/cyfitter_cfg.c **** 		CY_SET_XTND_REG32((void CYFAR *)(CYREG_TCPWM_CNT3_TR_CTRL0), 0x000007D7u);
 721              		.loc 1 602 0
 722 0236 364B     		ldr	r3, .L26+92
 723 0238 364A     		ldr	r2, .L26+96
 724 023a 1A60     		str	r2, [r3]
 603:.\Generated_Source\PSoC4/cyfitter_cfg.c **** 
 604:.\Generated_Source\PSoC4/cyfitter_cfg.c **** 		/* INT_SELECT Starting address: CYDEV_CPUSS_INT_SEL */
 605:.\Generated_Source\PSoC4/cyfitter_cfg.c **** 		CY_SET_XTND_REG32((void CYFAR *)(CYREG_CPUSS_INT_SEL), 0x00000002u);
 725              		.loc 1 605 0
 726 023c 364B     		ldr	r3, .L26+100
 727 023e 0222     		mov	r2, #2
 728 0240 1A60     		str	r2, [r3]
 606:.\Generated_Source\PSoC4/cyfitter_cfg.c **** 
 607:.\Generated_Source\PSoC4/cyfitter_cfg.c **** 		/* INT_CONFIG Starting address: CYDEV_UDB_INT_CFG */
 608:.\Generated_Source\PSoC4/cyfitter_cfg.c **** 		CY_SET_XTND_REG32((void CYFAR *)(CYREG_UDB_INT_CFG), 0x00000002u);
 729              		.loc 1 608 0
 730 0242 364B     		ldr	r3, .L26+104
 731 0244 0222     		mov	r2, #2
 732 0246 1A60     		str	r2, [r3]
 609:.\Generated_Source\PSoC4/cyfitter_cfg.c **** 
 610:.\Generated_Source\PSoC4/cyfitter_cfg.c **** 		/* Enable digital routing */
 611:.\Generated_Source\PSoC4/cyfitter_cfg.c **** 		CY_SET_XTND_REG8((void *)CYREG_UDB_UDBIF_BANK_CTL, CY_GET_XTND_REG8((void *)CYREG_UDB_UDBIF_BANK_
 733              		.loc 1 611 0
 734 0248 354A     		ldr	r2, .L26+108
 735 024a 354B     		ldr	r3, .L26+108
 736 024c 1B78     		ldrb	r3, [r3]
 737 024e DBB2     		uxtb	r3, r3
 738 0250 0221     		mov	r1, #2
 739 0252 0B43     		orr	r3, r1
 740 0254 DBB2     		uxtb	r3, r3
 741 0256 1370     		strb	r3, [r2]
 612:.\Generated_Source\PSoC4/cyfitter_cfg.c **** 
 613:.\Generated_Source\PSoC4/cyfitter_cfg.c **** 		/* Enable UDB array */
 614:.\Generated_Source\PSoC4/cyfitter_cfg.c **** 		CY_SET_XTND_REG8((void *)CYREG_UDB_UDBIF_WAIT_CFG, (uint8)((CY_GET_XTND_REG8((void *)CYREG_UDB_UD
 742              		.loc 1 614 0
 743 0258 324A     		ldr	r2, .L26+112
 744 025a 324B     		ldr	r3, .L26+112
 745 025c 1B78     		ldrb	r3, [r3]
 746 025e DBB2     		uxtb	r3, r3
 747 0260 3C21     		mov	r1, #60
 748 0262 8B43     		bic	r3, r1
 749 0264 DBB2     		uxtb	r3, r3
ARM GAS  C:\Users\owono\AppData\Local\Temp\ccd0Z0VF.s 			page 25


 750 0266 1421     		mov	r1, #20
 751 0268 0B43     		orr	r3, r1
 752 026a DBB2     		uxtb	r3, r3
 753 026c 1370     		strb	r3, [r2]
 615:.\Generated_Source\PSoC4/cyfitter_cfg.c **** 		CY_SET_XTND_REG8((void *)CYREG_UDB_UDBIF_BANK_CTL, (uint8)(CY_GET_XTND_REG8((void *)CYREG_UDB_UDB
 754              		.loc 1 615 0
 755 026e 2C4A     		ldr	r2, .L26+108
 756 0270 2B4B     		ldr	r3, .L26+108
 757 0272 1B78     		ldrb	r3, [r3]
 758 0274 DBB2     		uxtb	r3, r3
 759 0276 1621     		mov	r1, #22
 760 0278 0B43     		orr	r3, r1
 761 027a DBB2     		uxtb	r3, r3
 762 027c 1370     		strb	r3, [r2]
 763              	.LBE3:
 616:.\Generated_Source\PSoC4/cyfitter_cfg.c **** 	}
 617:.\Generated_Source\PSoC4/cyfitter_cfg.c **** 
 618:.\Generated_Source\PSoC4/cyfitter_cfg.c **** 	/* Perform second pass device configuration. These items must be configured in specific order afte
 619:.\Generated_Source\PSoC4/cyfitter_cfg.c **** 	/* IOPINS0_1 Starting address: CYDEV_GPIO_PRT1_BASE */
 620:.\Generated_Source\PSoC4/cyfitter_cfg.c **** 	CY_SET_XTND_REG32((void CYFAR *)(CYDEV_GPIO_PRT1_BASE), 0x000000ACu);
 764              		.loc 1 620 0
 765 027e 2A4B     		ldr	r3, .L26+116
 766 0280 AC22     		mov	r2, #172
 767 0282 1A60     		str	r2, [r3]
 621:.\Generated_Source\PSoC4/cyfitter_cfg.c **** 	CY_SET_XTND_REG32((void CYFAR *)(CYREG_GPIO_PRT1_PC), 0x00C30D88u);
 768              		.loc 1 621 0
 769 0284 294B     		ldr	r3, .L26+120
 770 0286 2A4A     		ldr	r2, .L26+124
 771 0288 1A60     		str	r2, [r3]
 622:.\Generated_Source\PSoC4/cyfitter_cfg.c **** 	CY_SET_XTND_REG32((void CYFAR *)(CYREG_GPIO_PRT1_PC2), 0x00000020u);
 772              		.loc 1 622 0
 773 028a 2A4B     		ldr	r3, .L26+128
 774 028c 2022     		mov	r2, #32
 775 028e 1A60     		str	r2, [r3]
 623:.\Generated_Source\PSoC4/cyfitter_cfg.c **** 
 624:.\Generated_Source\PSoC4/cyfitter_cfg.c **** 	/* IOPINS0_2 Starting address: CYDEV_GPIO_PRT2_BASE */
 625:.\Generated_Source\PSoC4/cyfitter_cfg.c **** 	CY_SET_XTND_REG32((void CYFAR *)(CYDEV_GPIO_PRT2_BASE), 0x0000007Du);
 776              		.loc 1 625 0
 777 0290 294B     		ldr	r3, .L26+132
 778 0292 7D22     		mov	r2, #125
 779 0294 1A60     		str	r2, [r3]
 626:.\Generated_Source\PSoC4/cyfitter_cfg.c **** 	CY_SET_XTND_REG32((void CYFAR *)(CYREG_GPIO_PRT2_PC), 0x00180000u);
 780              		.loc 1 626 0
 781 0296 294B     		ldr	r3, .L26+136
 782 0298 C022     		mov	r2, #192
 783 029a 5203     		lsl	r2, r2, #13
 784 029c 1A60     		str	r2, [r3]
 627:.\Generated_Source\PSoC4/cyfitter_cfg.c **** 	CY_SET_XTND_REG32((void CYFAR *)(CYREG_GPIO_PRT2_PC2), 0x0000003Du);
 785              		.loc 1 627 0
 786 029e 284B     		ldr	r3, .L26+140
 787 02a0 3D22     		mov	r2, #61
 788 02a2 1A60     		str	r2, [r3]
 628:.\Generated_Source\PSoC4/cyfitter_cfg.c **** 
 629:.\Generated_Source\PSoC4/cyfitter_cfg.c **** 
 630:.\Generated_Source\PSoC4/cyfitter_cfg.c **** 	/* Setup clocks based on selections from Clock DWR */
 631:.\Generated_Source\PSoC4/cyfitter_cfg.c **** 	ClockSetup();
 789              		.loc 1 631 0
ARM GAS  C:\Users\owono\AppData\Local\Temp\ccd0Z0VF.s 			page 26


 790 02a4 FFF7ACFE 		bl	ClockSetup
 632:.\Generated_Source\PSoC4/cyfitter_cfg.c **** 
 633:.\Generated_Source\PSoC4/cyfitter_cfg.c **** 	/* Perform basic analog initialization to defaults */
 634:.\Generated_Source\PSoC4/cyfitter_cfg.c **** 	AnalogSetDefault();
 791              		.loc 1 634 0
 792 02a8 FFF7FEFF 		bl	AnalogSetDefault
 635:.\Generated_Source\PSoC4/cyfitter_cfg.c **** 
 636:.\Generated_Source\PSoC4/cyfitter_cfg.c **** }
 793              		.loc 1 636 0
 794 02ac BD46     		mov	sp, r7
 795 02ae 02B0     		add	sp, sp, #8
 796              		@ sp needed
 797 02b0 80BD     		pop	{r7, pc}
 798              	.L27:
 799 02b2 C046     		.align	2
 800              	.L26:
 801 02b4 6CF02E40 		.word	1076818028
 802 02b8 1C700F40 		.word	1074753564
 803 02bc 00000000 		.word	cfg_memset_list.4794
 804 02c0 0C000000 		.word	cy_cfg_addr_table.4788
 805 02c4 30000000 		.word	cy_cfg_data_table.4789
 806 02c8 00600F40 		.word	1074749440
 807 02cc 02600F40 		.word	1074749442
 808 02d0 00010240 		.word	1073873152
 809 02d4 00339030 		.word	814756608
 810 02d8 00000240 		.word	1073872896
 811 02dc 08000440 		.word	1074003976
 812 02e0 10500F40 		.word	1074745360
 813 02e4 04009900 		.word	10027012
 814 02e8 14500F40 		.word	1074745364
 815 02ec 18500F40 		.word	1074745368
 816 02f0 00008540 		.word	1082458112
 817 02f4 20500F40 		.word	1074745376
 818 02f8 20012040 		.word	1075839264
 819 02fc F7070000 		.word	2039
 820 0300 60012040 		.word	1075839328
 821 0304 E7070000 		.word	2023
 822 0308 A0012040 		.word	1075839392
 823 030c 87070000 		.word	1927
 824 0310 E0012040 		.word	1075839456
 825 0314 D7070000 		.word	2007
 826 0318 20001040 		.word	1074790432
 827 031c 00800F40 		.word	1074757632
 828 0320 00700F40 		.word	1074753536
 829 0324 01700F40 		.word	1074753537
 830 0328 00010440 		.word	1074004224
 831 032c 08010440 		.word	1074004232
 832 0330 880DC300 		.word	12782984
 833 0334 18010440 		.word	1074004248
 834 0338 00020440 		.word	1074004480
 835 033c 08020440 		.word	1074004488
 836 0340 18020440 		.word	1074004504
 837              		.cfi_endproc
 838              	.LFE10:
 839              		.size	cyfitter_cfg, .-cyfitter_cfg
 840              		.section	.rodata
 841              		.align	2
ARM GAS  C:\Users\owono\AppData\Local\Temp\ccd0Z0VF.s 			page 27


 842              		.type	cfg_memset_list.4794, %object
 843              		.size	cfg_memset_list.4794, 12
 844              	cfg_memset_list.4794:
 845 0000 00300F40 		.word	1074737152
 846 0004 0004     		.short	1024
 847 0006 00400F40 		.4byte	1074741248
 848 000a 0004     		.short	1024
 849              		.align	2
 850              		.type	cy_cfg_addr_table.4788, %object
 851              		.size	cy_cfg_addr_table.4788, 36
 852              	cy_cfg_addr_table.4788:
 853 000c 01000F40 		.word	1074724865
 854 0010 06300F40 		.word	1074737158
 855 0014 02310F40 		.word	1074737410
 856 0018 4A320F40 		.word	1074737738
 857 001c 33330F40 		.word	1074737971
 858 0020 10410F40 		.word	1074741520
 859 0024 0A420F40 		.word	1074741770
 860 0028 0E430F40 		.word	1074742030
 861 002c 02600F40 		.word	1074749442
 862              		.align	2
 863              		.type	cy_cfg_data_table.4789, %object
 864              		.size	cy_cfg_data_table.4789, 352
 865              	cy_cfg_data_table.4789:
 866 0030 82       		.byte	-126
 867 0031 0D       		.byte	13
 868 0032 BA       		.byte	-70
 869 0033 30       		.byte	48
 870 0034 BB       		.byte	-69
 871 0035 03       		.byte	3
 872 0036 D8       		.byte	-40
 873 0037 04       		.byte	4
 874 0038 D9       		.byte	-39
 875 0039 04       		.byte	4
 876 003a DC       		.byte	-36
 877 003b 13       		.byte	19
 878 003c DF       		.byte	-33
 879 003d 01       		.byte	1
 880 003e 1C       		.byte	28
 881 003f 08       		.byte	8
 882 0040 27       		.byte	39
 883 0041 80       		.byte	-128
 884 0042 00       		.byte	0
 885 0043 01       		.byte	1
 886 0044 0A       		.byte	10
 887 0045 09       		.byte	9
 888 0046 0C       		.byte	12
 889 0047 02       		.byte	2
 890 0048 0E       		.byte	14
 891 0049 04       		.byte	4
 892 004a 16       		.byte	22
 893 004b 16       		.byte	22
 894 004c 1C       		.byte	28
 895 004d 10       		.byte	16
 896 004e 23       		.byte	35
 897 004f 01       		.byte	1
 898 0050 2E       		.byte	46
ARM GAS  C:\Users\owono\AppData\Local\Temp\ccd0Z0VF.s 			page 28


 899 0051 03       		.byte	3
 900 0052 30       		.byte	48
 901 0053 08       		.byte	8
 902 0054 32       		.byte	50
 903 0055 03       		.byte	3
 904 0056 33       		.byte	51
 905 0057 01       		.byte	1
 906 0058 34       		.byte	52
 907 0059 04       		.byte	4
 908 005a 36       		.byte	54
 909 005b 10       		.byte	16
 910 005c 3E       		.byte	62
 911 005d 10       		.byte	16
 912 005e 40       		.byte	64
 913 005f 30       		.byte	48
 914 0060 41       		.byte	65
 915 0061 05       		.byte	5
 916 0062 49       		.byte	73
 917 0063 FF       		.byte	-1
 918 0064 4A       		.byte	74
 919 0065 FF       		.byte	-1
 920 0066 4B       		.byte	75
 921 0067 FF       		.byte	-1
 922 0068 4D       		.byte	77
 923 0069 A0       		.byte	-96
 924 006a 4F       		.byte	79
 925 006b 04       		.byte	4
 926 006c 50       		.byte	80
 927 006d 18       		.byte	24
 928 006e 52       		.byte	82
 929 006f 80       		.byte	-128
 930 0070 54       		.byte	84
 931 0071 05       		.byte	5
 932 0072 56       		.byte	86
 933 0073 04       		.byte	4
 934 0074 58       		.byte	88
 935 0075 0B       		.byte	11
 936 0076 59       		.byte	89
 937 0077 0A       		.byte	10
 938 0078 5A       		.byte	90
 939 0079 0B       		.byte	11
 940 007a 5B       		.byte	91
 941 007b 0B       		.byte	11
 942 007c 5C       		.byte	92
 943 007d 99       		.byte	-103
 944 007e 5D       		.byte	93
 945 007f 99       		.byte	-103
 946 0080 5F       		.byte	95
 947 0081 01       		.byte	1
 948 0082 60       		.byte	96
 949 0083 40       		.byte	64
 950 0084 62       		.byte	98
 951 0085 C0       		.byte	-64
 952 0086 64       		.byte	100
 953 0087 40       		.byte	64
 954 0088 65       		.byte	101
 955 0089 40       		.byte	64
ARM GAS  C:\Users\owono\AppData\Local\Temp\ccd0Z0VF.s 			page 29


 956 008a 66       		.byte	102
 957 008b C0       		.byte	-64
 958 008c 68       		.byte	104
 959 008d C0       		.byte	-64
 960 008e 6A       		.byte	106
 961 008f C0       		.byte	-64
 962 0090 6C       		.byte	108
 963 0091 C0       		.byte	-64
 964 0092 6E       		.byte	110
 965 0093 C0       		.byte	-64
 966 0094 88       		.byte	-120
 967 0095 02       		.byte	2
 968 0096 A0       		.byte	-96
 969 0097 03       		.byte	3
 970 0098 B2       		.byte	-78
 971 0099 01       		.byte	1
 972 009a B6       		.byte	-74
 973 009b 02       		.byte	2
 974 009c C0       		.byte	-64
 975 009d 30       		.byte	48
 976 009e C1       		.byte	-63
 977 009f 05       		.byte	5
 978 00a0 C5       		.byte	-59
 979 00a1 D0       		.byte	-48
 980 00a2 C6       		.byte	-58
 981 00a3 01       		.byte	1
 982 00a4 C7       		.byte	-57
 983 00a5 20       		.byte	32
 984 00a6 C8       		.byte	-56
 985 00a7 26       		.byte	38
 986 00a8 C9       		.byte	-55
 987 00a9 FF       		.byte	-1
 988 00aa CA       		.byte	-54
 989 00ab FF       		.byte	-1
 990 00ac CB       		.byte	-53
 991 00ad FF       		.byte	-1
 992 00ae CD       		.byte	-51
 993 00af AF       		.byte	-81
 994 00b0 CE       		.byte	-50
 995 00b1 0F       		.byte	15
 996 00b2 CF       		.byte	-49
 997 00b3 04       		.byte	4
 998 00b4 D0       		.byte	-48
 999 00b5 18       		.byte	24
 1000 00b6 D6       		.byte	-42
 1001 00b7 08       		.byte	8
 1002 00b8 D8       		.byte	-40
 1003 00b9 0B       		.byte	11
 1004 00ba DA       		.byte	-38
 1005 00bb 0B       		.byte	11
 1006 00bc DB       		.byte	-37
 1007 00bd 04       		.byte	4
 1008 00be DC       		.byte	-36
 1009 00bf 09       		.byte	9
 1010 00c0 DD       		.byte	-35
 1011 00c1 99       		.byte	-103
 1012 00c2 DF       		.byte	-33
ARM GAS  C:\Users\owono\AppData\Local\Temp\ccd0Z0VF.s 			page 30


 1013 00c3 01       		.byte	1
 1014 00c4 E0       		.byte	-32
 1015 00c5 40       		.byte	64
 1016 00c6 E2       		.byte	-30
 1017 00c7 C0       		.byte	-64
 1018 00c8 E4       		.byte	-28
 1019 00c9 40       		.byte	64
 1020 00ca E5       		.byte	-27
 1021 00cb 40       		.byte	64
 1022 00cc E6       		.byte	-26
 1023 00cd C0       		.byte	-64
 1024 00ce E8       		.byte	-24
 1025 00cf C0       		.byte	-64
 1026 00d0 EA       		.byte	-22
 1027 00d1 C0       		.byte	-64
 1028 00d2 EC       		.byte	-20
 1029 00d3 C0       		.byte	-64
 1030 00d4 EE       		.byte	-18
 1031 00d5 C0       		.byte	-64
 1032 00d6 00       		.byte	0
 1033 00d7 10       		.byte	16
 1034 00d8 05       		.byte	5
 1035 00d9 01       		.byte	1
 1036 00da 06       		.byte	6
 1037 00db 01       		.byte	1
 1038 00dc 07       		.byte	7
 1039 00dd 08       		.byte	8
 1040 00de 0D       		.byte	13
 1041 00df 48       		.byte	72
 1042 00e0 10       		.byte	16
 1043 00e1 80       		.byte	-128
 1044 00e2 17       		.byte	23
 1045 00e3 80       		.byte	-128
 1046 00e4 18       		.byte	24
 1047 00e5 10       		.byte	16
 1048 00e6 19       		.byte	25
 1049 00e7 80       		.byte	-128
 1050 00e8 1D       		.byte	29
 1051 00e9 09       		.byte	9
 1052 00ea 1E       		.byte	30
 1053 00eb 08       		.byte	8
 1054 00ec 1F       		.byte	31
 1055 00ed 80       		.byte	-128
 1056 00ee 27       		.byte	39
 1057 00ef 10       		.byte	16
 1058 00f0 2F       		.byte	47
 1059 00f1 80       		.byte	-128
 1060 00f2 41       		.byte	65
 1061 00f3 08       		.byte	8
 1062 00f4 45       		.byte	69
 1063 00f5 08       		.byte	8
 1064 00f6 4A       		.byte	74
 1065 00f7 02       		.byte	2
 1066 00f8 4B       		.byte	75
 1067 00f9 01       		.byte	1
 1068 00fa 4E       		.byte	78
 1069 00fb 02       		.byte	2
ARM GAS  C:\Users\owono\AppData\Local\Temp\ccd0Z0VF.s 			page 31


 1070 00fc 50       		.byte	80
 1071 00fd 80       		.byte	-128
 1072 00fe 51       		.byte	81
 1073 00ff 40       		.byte	64
 1074 0100 52       		.byte	82
 1075 0101 03       		.byte	3
 1076 0102 5A       		.byte	90
 1077 0103 40       		.byte	64
 1078 0104 5D       		.byte	93
 1079 0105 80       		.byte	-128
 1080 0106 5E       		.byte	94
 1081 0107 08       		.byte	8
 1082 0108 5F       		.byte	95
 1083 0109 01       		.byte	1
 1084 010a 62       		.byte	98
 1085 010b 80       		.byte	-128
 1086 010c 64       		.byte	100
 1087 010d 80       		.byte	-128
 1088 010e 77       		.byte	119
 1089 010f 80       		.byte	-128
 1090 0110 7A       		.byte	122
 1091 0111 80       		.byte	-128
 1092 0112 7D       		.byte	125
 1093 0113 08       		.byte	8
 1094 0114 7E       		.byte	126
 1095 0115 80       		.byte	-128
 1096 0116 80       		.byte	-128
 1097 0117 80       		.byte	-128
 1098 0118 81       		.byte	-127
 1099 0119 04       		.byte	4
 1100 011a 83       		.byte	-125
 1101 011b 88       		.byte	-120
 1102 011c 8F       		.byte	-113
 1103 011d 10       		.byte	16
 1104 011e 92       		.byte	-110
 1105 011f 40       		.byte	64
 1106 0120 AC       		.byte	-84
 1107 0121 04       		.byte	4
 1108 0122 B3       		.byte	-77
 1109 0123 80       		.byte	-128
 1110 0124 B6       		.byte	-74
 1111 0125 40       		.byte	64
 1112 0126 C0       		.byte	-64
 1113 0127 D2       		.byte	-46
 1114 0128 C2       		.byte	-62
 1115 0129 A0       		.byte	-96
 1116 012a C4       		.byte	-60
 1117 012b 88       		.byte	-120
 1118 012c CA       		.byte	-54
 1119 012d 80       		.byte	-128
 1120 012e D0       		.byte	-48
 1121 012f 42       		.byte	66
 1122 0130 D2       		.byte	-46
 1123 0131 18       		.byte	24
 1124 0132 D6       		.byte	-42
 1125 0133 D8       		.byte	-40
 1126 0134 D8       		.byte	-40
ARM GAS  C:\Users\owono\AppData\Local\Temp\ccd0Z0VF.s 			page 32


 1127 0135 88       		.byte	-120
 1128 0136 DE       		.byte	-34
 1129 0137 C1       		.byte	-63
 1130 0138 E0       		.byte	-32
 1131 0139 04       		.byte	4
 1132 013a E6       		.byte	-26
 1133 013b 40       		.byte	64
 1134 013c 07       		.byte	7
 1135 013d 10       		.byte	16
 1136 013e 52       		.byte	82
 1137 013f 20       		.byte	32
 1138 0140 59       		.byte	89
 1139 0141 80       		.byte	-128
 1140 0142 67       		.byte	103
 1141 0143 02       		.byte	2
 1142 0144 6F       		.byte	111
 1143 0145 08       		.byte	8
 1144 0146 83       		.byte	-125
 1145 0147 19       		.byte	25
 1146 0148 8D       		.byte	-115
 1147 0149 80       		.byte	-128
 1148 014a A2       		.byte	-94
 1149 014b 20       		.byte	32
 1150 014c AE       		.byte	-82
 1151 014d 20       		.byte	32
 1152 014e C0       		.byte	-64
 1153 014f 20       		.byte	32
 1154 0150 D4       		.byte	-44
 1155 0151 A0       		.byte	-96
 1156 0152 D6       		.byte	-42
 1157 0153 80       		.byte	-128
 1158 0154 DA       		.byte	-38
 1159 0155 80       		.byte	-128
 1160 0156 E0       		.byte	-32
 1161 0157 20       		.byte	32
 1162 0158 E6       		.byte	-26
 1163 0159 A0       		.byte	-96
 1164 015a EE       		.byte	-18
 1165 015b 40       		.byte	64
 1166 015c 24       		.byte	36
 1167 015d 20       		.byte	32
 1168 015e 40       		.byte	64
 1169 015f 20       		.byte	32
 1170 0160 46       		.byte	70
 1171 0161 01       		.byte	1
 1172 0162 4C       		.byte	76
 1173 0163 20       		.byte	32
 1174 0164 6A       		.byte	106
 1175 0165 40       		.byte	64
 1176 0166 6F       		.byte	111
 1177 0167 01       		.byte	1
 1178 0168 C8       		.byte	-56
 1179 0169 01       		.byte	1
 1180 016a D0       		.byte	-48
 1181 016b 06       		.byte	6
 1182 016c D2       		.byte	-46
 1183 016d 01       		.byte	1
ARM GAS  C:\Users\owono\AppData\Local\Temp\ccd0Z0VF.s 			page 33


 1184 016e DA       		.byte	-38
 1185 016f 03       		.byte	3
 1186 0170 10       		.byte	16
 1187 0171 20       		.byte	32
 1188 0172 14       		.byte	20
 1189 0173 20       		.byte	32
 1190 0174 82       		.byte	-126
 1191 0175 40       		.byte	64
 1192 0176 8E       		.byte	-114
 1193 0177 01       		.byte	1
 1194 0178 96       		.byte	-106
 1195 0179 40       		.byte	64
 1196 017a 9C       		.byte	-100
 1197 017b 20       		.byte	32
 1198 017c 9E       		.byte	-98
 1199 017d 01       		.byte	1
 1200 017e A4       		.byte	-92
 1201 017f 20       		.byte	32
 1202 0180 B3       		.byte	-77
 1203 0181 01       		.byte	1
 1204 0182 B4       		.byte	-76
 1205 0183 10       		.byte	16
 1206 0184 C4       		.byte	-60
 1207 0185 0C       		.byte	12
 1208 0186 E4       		.byte	-28
 1209 0187 02       		.byte	2
 1210 0188 EC       		.byte	-20
 1211 0189 04       		.byte	4
 1212 018a EE       		.byte	-18
 1213 018b 02       		.byte	2
 1214 018c 10       		.byte	16
 1215 018d 0A       		.byte	10
 1216 018e 11       		.byte	17
 1217 018f 01       		.byte	1
 1218              		.text
 1219              	.Letext0:
 1220              		.file 2 "c:\\program files (x86)\\cypress\\psoc creator\\3.3\\psoc creator\\import\\gnu\\arm\\4.9.
 1221              		.file 3 ".\\Generated_Source\\PSoC4\\cytypes.h"