ARM GAS  C:\Users\owono\AppData\Local\Temp\ccQUw5d5.s 			page 1


   1              		.cpu cortex-m0
   2              		.fpu softvfp
   3              		.eabi_attribute 20, 1
   4              		.eabi_attribute 21, 1
   5              		.eabi_attribute 23, 3
   6              		.eabi_attribute 24, 1
   7              		.eabi_attribute 25, 1
   8              		.eabi_attribute 26, 1
   9              		.eabi_attribute 30, 6
  10              		.eabi_attribute 34, 0
  11              		.eabi_attribute 18, 4
  12              		.code	16
  13              		.file	"FrequencyCounter.c"
  14              		.text
  15              	.Ltext0:
  16              		.cfi_sections	.debug_frame
  17              		.comm	Input_Signal_Counter1_Count,2,2
  18              		.comm	Input_Signal_Counter2_Count,2,2
  19              		.comm	Ref_Clock_Counter1_Count,2,2
  20              		.comm	Ref_Clock_Counter2_Count,2,2
  21              		.comm	Input_Signal_Count,4,4
  22              		.comm	Ref_Clock_Count,4,4
  23              		.comm	Freq_Integer,4,4
  24              		.comm	Freq_Decimal,2,2
  25              		.comm	Input_Sig_Ctr_Capture,1,1
  26              		.comm	Ref_Clk_Ctr_Capture,1,1
  27              		.comm	Input_Frequency,10,4
  28              		.comm	InputCounter_ASCII,10,4
  29              		.comm	RefCounter_ASCII,10,4
  30              		.section	.text.Initialize_Freq_Meas_System,"ax",%progbits
  31              		.align	2
  32              		.global	Initialize_Freq_Meas_System
  33              		.code	16
  34              		.thumb_func
  35              		.type	Initialize_Freq_Meas_System, %function
  36              	Initialize_Freq_Meas_System:
  37              	.LFB37:
  38              		.file 1 ".\\FrequencyCounter.c"
   1:.\FrequencyCounter.c **** /***************************************************************************//**
   2:.\FrequencyCounter.c **** * @file    FrequencyCounter.c
   3:.\FrequencyCounter.c **** * @version 1.0
   4:.\FrequencyCounter.c **** * @author  Chethan (dche@cypress.com)
   5:.\FrequencyCounter.c **** *
   6:.\FrequencyCounter.c **** * @par Description
   7:.\FrequencyCounter.c **** *   This file contains the source code to the APIs for computing the input signal 
   8:.\FrequencyCounter.c **** *   frequency.
   9:.\FrequencyCounter.c **** *
  10:.\FrequencyCounter.c **** * @par Notes
  11:.\FrequencyCounter.c **** *	None
  12:.\FrequencyCounter.c **** *
  13:.\FrequencyCounter.c **** * @par Hardware Dependency
  14:.\FrequencyCounter.c **** *    1. CY8CKIT-042 BLE Pioneer Kit
  15:.\FrequencyCounter.c **** *
  16:.\FrequencyCounter.c **** * @par References
  17:.\FrequencyCounter.c **** *    1. 001-32359: AN2283 "PSoC 1 Measuring Frequency"
  18:.\FrequencyCounter.c **** *
  19:.\FrequencyCounter.c **** * @par Code Tested With
ARM GAS  C:\Users\owono\AppData\Local\Temp\ccQUw5d5.s 			page 2


  20:.\FrequencyCounter.c **** *    1. PSoC Creator  3.1 SP2 (3.1.0.2177)
  21:.\FrequencyCounter.c **** *    2. GCC 4.8.4
  22:.\FrequencyCounter.c **** *
  23:.\FrequencyCounter.c **** **//****************************************************************************
  24:.\FrequencyCounter.c **** * Copyright (2015), Cypress Semiconductor Corporation.
  25:.\FrequencyCounter.c **** ********************************************************************************
  26:.\FrequencyCounter.c **** * All rights reserved. 
  27:.\FrequencyCounter.c **** * This software, including source code, documentation and related 
  28:.\FrequencyCounter.c **** * materials (“Software”), is owned by Cypress Semiconductor 
  29:.\FrequencyCounter.c **** * Corporation (“Cypress”) and is protected by and subject to worldwide 
  30:.\FrequencyCounter.c **** * patent protection (United States and foreign), United States copyright 
  31:.\FrequencyCounter.c **** * laws and international treaty provisions. Therefore, you may use this 
  32:.\FrequencyCounter.c **** * Software only as provided in the license agreement accompanying the 
  33:.\FrequencyCounter.c **** * software package from which you obtained this Software (“EULA”). 
  34:.\FrequencyCounter.c **** *
  35:.\FrequencyCounter.c **** * If no EULA applies, Cypress hereby grants you a personal, non-exclusive, 
  36:.\FrequencyCounter.c **** * non-transferable license to copy, modify and compile the Software source code
  37:.\FrequencyCounter.c **** * solely for your use in connection with Cypress's integrated circuit products.
  38:.\FrequencyCounter.c **** * Any reproduction, modification, translation, compilation, or representation
  39:.\FrequencyCounter.c **** * of this Software except as specified above is prohibited without the express
  40:.\FrequencyCounter.c **** * written permission of Cypress.
  41:.\FrequencyCounter.c **** 
  42:.\FrequencyCounter.c **** * Disclaimer: THIS SOFTWARE IS PROVIDED AS-IS, WITH NO WARRANTY OF ANY KIND,
  43:.\FrequencyCounter.c **** * EXPRESS OR IMPLIED, INCLUDING, BUT NOT LIMITED TO, NONINFRINGEMENT, IMPLIED
  44:.\FrequencyCounter.c **** * WARRANTIES OF MERCHANTABILITY AND FITNESS FOR A PARTICULAR PURPOSE.
  45:.\FrequencyCounter.c **** * Cypress reserves the right to make changes to the Software without notice. 
  46:.\FrequencyCounter.c **** * Cypress does not assume any liability arising out of the application or use 
  47:.\FrequencyCounter.c **** * of the Software or any product or circuit described in the Software. Cypress
  48:.\FrequencyCounter.c **** * does not authorize its products for use in any products where a malfunction
  49:.\FrequencyCounter.c **** * or failure of the Cypress product may reasonably be expected to result in 
  50:.\FrequencyCounter.c **** * significant property damage, injury or death (“High Risk Product”). By 
  51:.\FrequencyCounter.c **** * including Cypress’s product in a High Risk Product, the manufacturer of such  
  52:.\FrequencyCounter.c **** * system or application assumes all risk of such use and in doing so agrees to  
  53:.\FrequencyCounter.c **** * indemnify Cypress against all liability. 
  54:.\FrequencyCounter.c **** *******************************************************************************/
  55:.\FrequencyCounter.c **** 
  56:.\FrequencyCounter.c **** /*******************************************************************************
  57:.\FrequencyCounter.c **** *   Included Headers
  58:.\FrequencyCounter.c **** *******************************************************************************/
  59:.\FrequencyCounter.c **** #include "main.h"
  60:.\FrequencyCounter.c **** 
  61:.\FrequencyCounter.c **** /* Variable to store the captured count values of counter */
  62:.\FrequencyCounter.c **** uint16 Input_Signal_Counter1_Count, Input_Signal_Counter2_Count;
  63:.\FrequencyCounter.c **** uint16 Ref_Clock_Counter1_Count, Ref_Clock_Counter2_Count;
  64:.\FrequencyCounter.c **** 
  65:.\FrequencyCounter.c **** /* Variable to store the 32-bit count value */
  66:.\FrequencyCounter.c **** uint32 Input_Signal_Count, Ref_Clock_Count;
  67:.\FrequencyCounter.c **** 
  68:.\FrequencyCounter.c **** /* Variable to store the integer part and decimal part of the computed frequency */
  69:.\FrequencyCounter.c **** uint32 Freq_Integer;
  70:.\FrequencyCounter.c **** uint16 Freq_Decimal;
  71:.\FrequencyCounter.c **** 
  72:.\FrequencyCounter.c **** /* Variable to indicate PWM_2s ISR is executed */
  73:.\FrequencyCounter.c **** extern uint8 Calculate_Frequency;
  74:.\FrequencyCounter.c **** 
  75:.\FrequencyCounter.c **** /* Variable to indicate valid capture events dtection */
  76:.\FrequencyCounter.c **** uint8 Input_Sig_Ctr_Capture, Ref_Clk_Ctr_Capture;
ARM GAS  C:\Users\owono\AppData\Local\Temp\ccQUw5d5.s 			page 3


  77:.\FrequencyCounter.c **** 
  78:.\FrequencyCounter.c **** /* Array to store the computed frequency and count value in ASCII format */
  79:.\FrequencyCounter.c **** uint8 Input_Frequency[FREQ_DATA_LEN];
  80:.\FrequencyCounter.c **** uint8 InputCounter_ASCII[FREQ_DATA_LEN];
  81:.\FrequencyCounter.c **** uint8 RefCounter_ASCII[FREQ_DATA_LEN];
  82:.\FrequencyCounter.c **** 
  83:.\FrequencyCounter.c **** /* Interrupt Service Routine for Input_Sig_Counter, Ref_Clock_Counter and PWM_2s */
  84:.\FrequencyCounter.c **** CY_ISR_PROTO(PWM_2s_InterruptHandler);
  85:.\FrequencyCounter.c **** CY_ISR_PROTO(Input_Sig_Ctr_InterruptHandler);
  86:.\FrequencyCounter.c **** CY_ISR_PROTO(Ref_Clk_Ctr_InterruptHandler);
  87:.\FrequencyCounter.c **** 
  88:.\FrequencyCounter.c **** /*******************************************************************************
  89:.\FrequencyCounter.c **** * Function Name: Initialize_Freq_Meas_System
  90:.\FrequencyCounter.c **** ********************************************************************************
  91:.\FrequencyCounter.c **** *
  92:.\FrequencyCounter.c **** * Summary:
  93:.\FrequencyCounter.c **** *  Function starts component related to frequency measurement 
  94:.\FrequencyCounter.c **** *
  95:.\FrequencyCounter.c **** * Parameters:
  96:.\FrequencyCounter.c **** *  None
  97:.\FrequencyCounter.c **** *
  98:.\FrequencyCounter.c **** * Return:
  99:.\FrequencyCounter.c **** *  None
 100:.\FrequencyCounter.c **** *
 101:.\FrequencyCounter.c **** *******************************************************************************/
 102:.\FrequencyCounter.c **** void Initialize_Freq_Meas_System(void)
 103:.\FrequencyCounter.c **** {
  39              		.loc 1 103 0
  40              		.cfi_startproc
  41 0000 80B5     		push	{r7, lr}
  42              		.cfi_def_cfa_offset 8
  43              		.cfi_offset 7, -8
  44              		.cfi_offset 14, -4
  45 0002 00AF     		add	r7, sp, #0
  46              		.cfi_def_cfa_register 7
 104:.\FrequencyCounter.c **** 	/* Start the PWM and counter ISRs */
 105:.\FrequencyCounter.c **** 	PWM_2s_ISR_StartEx(PWM_2s_InterruptHandler);
  47              		.loc 1 105 0
  48 0004 0D4B     		ldr	r3, .L2
  49 0006 181C     		mov	r0, r3
  50 0008 FFF7FEFF 		bl	PWM_2s_ISR_StartEx
 106:.\FrequencyCounter.c **** 	Input_Sig_Ctr_ISR_StartEx(Input_Sig_Ctr_InterruptHandler);
  51              		.loc 1 106 0
  52 000c 0C4B     		ldr	r3, .L2+4
  53 000e 181C     		mov	r0, r3
  54 0010 FFF7FEFF 		bl	Input_Sig_Ctr_ISR_StartEx
 107:.\FrequencyCounter.c **** 	Ref_Clk_Ctr_ISR_StartEx(Ref_Clk_Ctr_InterruptHandler);
  55              		.loc 1 107 0
  56 0014 0B4B     		ldr	r3, .L2+8
  57 0016 181C     		mov	r0, r3
  58 0018 FFF7FEFF 		bl	Ref_Clk_Ctr_ISR_StartEx
 108:.\FrequencyCounter.c **** 	
 109:.\FrequencyCounter.c **** 	/* Start PWM component to generate pulse width of 1s */
 110:.\FrequencyCounter.c **** 	PWM_2s_Start();
  59              		.loc 1 110 0
  60 001c FFF7FEFF 		bl	PWM_2s_Start
 111:.\FrequencyCounter.c **** 	
ARM GAS  C:\Users\owono\AppData\Local\Temp\ccQUw5d5.s 			page 4


 112:.\FrequencyCounter.c **** 	/* Start the input signal counter1 and counter2 */
 113:.\FrequencyCounter.c **** 	Input_Signal_Counter1_Start();
  61              		.loc 1 113 0
  62 0020 FFF7FEFF 		bl	Input_Signal_Counter1_Start
 114:.\FrequencyCounter.c **** 	Input_Signal_Counter2_Start();
  63              		.loc 1 114 0
  64 0024 FFF7FEFF 		bl	Input_Signal_Counter2_Start
 115:.\FrequencyCounter.c **** 	
 116:.\FrequencyCounter.c **** 	/* Start the reference clock counter1 and counter2 */
 117:.\FrequencyCounter.c **** 	Ref_Clock_Counter1_Start();
  65              		.loc 1 117 0
  66 0028 FFF7FEFF 		bl	Ref_Clock_Counter1_Start
 118:.\FrequencyCounter.c **** 	Ref_Clock_Counter2_Start();
  67              		.loc 1 118 0
  68 002c FFF7FEFF 		bl	Ref_Clock_Counter2_Start
 119:.\FrequencyCounter.c **** 	
 120:.\FrequencyCounter.c **** 	#if (OPAMP_ENABLE)
 121:.\FrequencyCounter.c **** 		/* Start the unity gain buffer */
 122:.\FrequencyCounter.c **** 		Opamp_1_Start();
  69              		.loc 1 122 0
  70 0030 FFF7FEFF 		bl	Opamp_1_Start
 123:.\FrequencyCounter.c **** 
 124:.\FrequencyCounter.c **** 		/* Start the opamp to convert input arbitrary signal to square wave */
 125:.\FrequencyCounter.c **** 		Comparator_Start();
  71              		.loc 1 125 0
  72 0034 FFF7FEFF 		bl	Comparator_Start
 126:.\FrequencyCounter.c **** 	#endif
 127:.\FrequencyCounter.c **** }
  73              		.loc 1 127 0
  74 0038 BD46     		mov	sp, r7
  75              		@ sp needed
  76 003a 80BD     		pop	{r7, pc}
  77              	.L3:
  78              		.align	2
  79              	.L2:
  80 003c 00000000 		.word	PWM_2s_InterruptHandler
  81 0040 00000000 		.word	Input_Sig_Ctr_InterruptHandler
  82 0044 00000000 		.word	Ref_Clk_Ctr_InterruptHandler
  83              		.cfi_endproc
  84              	.LFE37:
  85              		.size	Initialize_Freq_Meas_System, .-Initialize_Freq_Meas_System
  86              		.global	__aeabi_ui2f
  87              		.global	__aeabi_fdiv
  88              		.global	__aeabi_fmul
  89              		.global	__aeabi_f2iz
  90              		.global	__aeabi_fcmplt
  91              		.global	__aeabi_fsub
  92              		.section	.text.Compute_Frequency,"ax",%progbits
  93              		.align	2
  94              		.global	Compute_Frequency
  95              		.code	16
  96              		.thumb_func
  97              		.type	Compute_Frequency, %function
  98              	Compute_Frequency:
  99              	.LFB38:
 128:.\FrequencyCounter.c **** 
 129:.\FrequencyCounter.c **** /*******************************************************************************
ARM GAS  C:\Users\owono\AppData\Local\Temp\ccQUw5d5.s 			page 5


 130:.\FrequencyCounter.c **** * Function Name: Compute_Frequency
 131:.\FrequencyCounter.c **** ********************************************************************************
 132:.\FrequencyCounter.c **** *
 133:.\FrequencyCounter.c **** * Summary:
 134:.\FrequencyCounter.c **** *  Function computes the input signal frequency using the latched count value 
 135:.\FrequencyCounter.c **** *
 136:.\FrequencyCounter.c **** * Parameters:
 137:.\FrequencyCounter.c **** *  None
 138:.\FrequencyCounter.c **** *
 139:.\FrequencyCounter.c **** * Return:
 140:.\FrequencyCounter.c **** *  None
 141:.\FrequencyCounter.c **** *
 142:.\FrequencyCounter.c **** *******************************************************************************/
 143:.\FrequencyCounter.c **** void Compute_Frequency(void)
 144:.\FrequencyCounter.c **** {
 100              		.loc 1 144 0
 101              		.cfi_startproc
 102 0000 90B5     		push	{r4, r7, lr}
 103              		.cfi_def_cfa_offset 12
 104              		.cfi_offset 4, -12
 105              		.cfi_offset 7, -8
 106              		.cfi_offset 14, -4
 107 0002 83B0     		sub	sp, sp, #12
 108              		.cfi_def_cfa_offset 24
 109 0004 00AF     		add	r7, sp, #0
 110              		.cfi_def_cfa_register 7
 145:.\FrequencyCounter.c **** 	/* Variable to store the ratio of Input counter count and Ref counter count */
 146:.\FrequencyCounter.c **** 	float32 CountRatio = 0;
 111              		.loc 1 146 0
 112 0006 0023     		mov	r3, #0
 113 0008 7B60     		str	r3, [r7, #4]
 147:.\FrequencyCounter.c **** 	
 148:.\FrequencyCounter.c **** 	/* Variable to store the input signal frequency */
 149:.\FrequencyCounter.c **** 	float32 Frequency_Temp = 0; 
 114              		.loc 1 149 0
 115 000a 0023     		mov	r3, #0
 116 000c 3B60     		str	r3, [r7]
 150:.\FrequencyCounter.c **** 	
 151:.\FrequencyCounter.c **** 	/* Compute the 32-bit count value */
 152:.\FrequencyCounter.c **** 	Input_Signal_Count = ((int32)(Input_Signal_Counter2_Count << 16)) + Input_Signal_Counter1_Count +1
 117              		.loc 1 152 0
 118 000e 384B     		ldr	r3, .L16
 119 0010 1B88     		ldrh	r3, [r3]
 120 0012 1B04     		lsl	r3, r3, #16
 121 0014 374A     		ldr	r2, .L16+4
 122 0016 1288     		ldrh	r2, [r2]
 123 0018 9B18     		add	r3, r3, r2
 124 001a 0133     		add	r3, r3, #1
 125 001c 1A1C     		mov	r2, r3
 126 001e 364B     		ldr	r3, .L16+8
 127 0020 1A60     		str	r2, [r3]
 153:.\FrequencyCounter.c **** 	Ref_Clock_Count = ((int32)(Ref_Clock_Counter2_Count << 16)) + Ref_Clock_Counter1_Count + 1;
 128              		.loc 1 153 0
 129 0022 364B     		ldr	r3, .L16+12
 130 0024 1B88     		ldrh	r3, [r3]
 131 0026 1B04     		lsl	r3, r3, #16
 132 0028 354A     		ldr	r2, .L16+16
ARM GAS  C:\Users\owono\AppData\Local\Temp\ccQUw5d5.s 			page 6


 133 002a 1288     		ldrh	r2, [r2]
 134 002c 9B18     		add	r3, r3, r2
 135 002e 0133     		add	r3, r3, #1
 136 0030 1A1C     		mov	r2, r3
 137 0032 344B     		ldr	r3, .L16+20
 138 0034 1A60     		str	r2, [r3]
 154:.\FrequencyCounter.c **** 	
 155:.\FrequencyCounter.c **** 	/* Check if divide by zero condition occurs */
 156:.\FrequencyCounter.c **** 	if(Ref_Clock_Count!=0)
 139              		.loc 1 156 0
 140 0036 334B     		ldr	r3, .L16+20
 141 0038 1B68     		ldr	r3, [r3]
 142 003a 002B     		cmp	r3, #0
 143 003c 12D0     		beq	.L5
 157:.\FrequencyCounter.c **** 	{
 158:.\FrequencyCounter.c **** 		/* Compute the ratio of input_sig_counter_count and the ref_clock_counter count */
 159:.\FrequencyCounter.c **** 		CountRatio = (float) ((float)Input_Signal_Count/ (float)Ref_Clock_Count);
 144              		.loc 1 159 0
 145 003e 2E4B     		ldr	r3, .L16+8
 146 0040 1B68     		ldr	r3, [r3]
 147 0042 181C     		mov	r0, r3
 148 0044 FFF7FEFF 		bl	__aeabi_ui2f
 149 0048 041C     		add	r4, r0, #0
 150 004a 2E4B     		ldr	r3, .L16+20
 151 004c 1B68     		ldr	r3, [r3]
 152 004e 181C     		mov	r0, r3
 153 0050 FFF7FEFF 		bl	__aeabi_ui2f
 154 0054 031C     		add	r3, r0, #0
 155 0056 201C     		add	r0, r4, #0
 156 0058 191C     		add	r1, r3, #0
 157 005a FFF7FEFF 		bl	__aeabi_fdiv
 158 005e 031C     		add	r3, r0, #0
 159 0060 7B60     		str	r3, [r7, #4]
 160 0062 01E0     		b	.L6
 161              	.L5:
 160:.\FrequencyCounter.c **** 	}
 161:.\FrequencyCounter.c **** 	else
 162:.\FrequencyCounter.c **** 		CountRatio=0;
 162              		.loc 1 162 0
 163 0064 0023     		mov	r3, #0
 164 0066 7B60     		str	r3, [r7, #4]
 165              	.L6:
 163:.\FrequencyCounter.c **** 	
 164:.\FrequencyCounter.c **** 	/* Calculate the input signal frequency */
 165:.\FrequencyCounter.c **** 	Frequency_Temp = (CountRatio * CLOCK_FREQENCY);
 166              		.loc 1 165 0
 167 0068 7868     		ldr	r0, [r7, #4]
 168 006a 2749     		ldr	r1, .L16+24
 169 006c FFF7FEFF 		bl	__aeabi_fmul
 170 0070 031C     		add	r3, r0, #0
 171 0072 3B60     		str	r3, [r7]
 166:.\FrequencyCounter.c **** 	
 167:.\FrequencyCounter.c **** 	/* Get the integer value of the calculated frequency */
 168:.\FrequencyCounter.c **** 	Freq_Integer = (int32)Frequency_Temp;
 172              		.loc 1 168 0
 173 0074 3868     		ldr	r0, [r7]
 174 0076 FFF7FEFF 		bl	__aeabi_f2iz
ARM GAS  C:\Users\owono\AppData\Local\Temp\ccQUw5d5.s 			page 7


 175 007a 031C     		mov	r3, r0
 176 007c 1A1C     		mov	r2, r3
 177 007e 234B     		ldr	r3, .L16+28
 178 0080 1A60     		str	r2, [r3]
 169:.\FrequencyCounter.c **** 	
 170:.\FrequencyCounter.c **** 	/* Reset the input_frequency array before storing the frequency value */
 171:.\FrequencyCounter.c **** 	Reset_Array(Input_Frequency, DATA_END);
 179              		.loc 1 171 0
 180 0082 234B     		ldr	r3, .L16+32
 181 0084 181C     		mov	r0, r3
 182 0086 0A21     		mov	r1, #10
 183 0088 FFF7FEFF 		bl	Reset_Array
 172:.\FrequencyCounter.c **** 	
 173:.\FrequencyCounter.c **** 	/* If input frequency is less than 1KHz, format the data to display in units of Hz */
 174:.\FrequencyCounter.c **** 	if(Frequency_Temp < ONE_KHZ)
 184              		.loc 1 174 0
 185 008c 3868     		ldr	r0, [r7]
 186 008e 2149     		ldr	r1, .L16+36
 187 0090 FFF7FEFF 		bl	__aeabi_fcmplt
 188 0094 031E     		sub	r3, r0, #0
 189 0096 1BD0     		beq	.L14
 175:.\FrequencyCounter.c **** 	{
 176:.\FrequencyCounter.c **** 		/* Extract only the decimal part of the computed frequency value */
 177:.\FrequencyCounter.c **** 		Frequency_Temp -= Freq_Integer;
 190              		.loc 1 177 0
 191 0098 1C4B     		ldr	r3, .L16+28
 192 009a 1B68     		ldr	r3, [r3]
 193 009c 181C     		mov	r0, r3
 194 009e FFF7FEFF 		bl	__aeabi_ui2f
 195 00a2 031C     		add	r3, r0, #0
 196 00a4 3868     		ldr	r0, [r7]
 197 00a6 191C     		add	r1, r3, #0
 198 00a8 FFF7FEFF 		bl	__aeabi_fsub
 199 00ac 031C     		add	r3, r0, #0
 200 00ae 3B60     		str	r3, [r7]
 178:.\FrequencyCounter.c **** 		
 179:.\FrequencyCounter.c **** 		/* Convert the decimal value into integer value for ASCII conversion */
 180:.\FrequencyCounter.c **** 		Freq_Decimal = (int32)(Frequency_Temp * THOUSAND);
 201              		.loc 1 180 0
 202 00b0 3868     		ldr	r0, [r7]
 203 00b2 1849     		ldr	r1, .L16+36
 204 00b4 FFF7FEFF 		bl	__aeabi_fmul
 205 00b8 031C     		add	r3, r0, #0
 206 00ba 181C     		add	r0, r3, #0
 207 00bc FFF7FEFF 		bl	__aeabi_f2iz
 208 00c0 031C     		mov	r3, r0
 209 00c2 9AB2     		uxth	r2, r3
 210 00c4 144B     		ldr	r3, .L16+40
 211 00c6 1A80     		strh	r2, [r3]
 181:.\FrequencyCounter.c **** 		
 182:.\FrequencyCounter.c **** 		/* Format the computed frequency value to display in units of Hz */
 183:.\FrequencyCounter.c **** 		FormatFrequencyData(FREQ_HZ);
 212              		.loc 1 183 0
 213 00c8 0320     		mov	r0, #3
 214 00ca FFF7FEFF 		bl	FormatFrequencyData
 215 00ce 0CE0     		b	.L4
 216              	.L14:
ARM GAS  C:\Users\owono\AppData\Local\Temp\ccQUw5d5.s 			page 8


 184:.\FrequencyCounter.c **** 	}
 185:.\FrequencyCounter.c **** 	/* If input frequency is less than 1MHz, format the data to display in units of KHz */
 186:.\FrequencyCounter.c **** 	else if(Frequency_Temp < ONE_MHZ)
 217              		.loc 1 186 0
 218 00d0 3868     		ldr	r0, [r7]
 219 00d2 1249     		ldr	r1, .L16+44
 220 00d4 FFF7FEFF 		bl	__aeabi_fcmplt
 221 00d8 031E     		sub	r3, r0, #0
 222 00da 03D0     		beq	.L15
 187:.\FrequencyCounter.c **** 	{
 188:.\FrequencyCounter.c **** 		FormatFrequencyData(FREQ_KHZ);
 223              		.loc 1 188 0
 224 00dc 0220     		mov	r0, #2
 225 00de FFF7FEFF 		bl	FormatFrequencyData
 226 00e2 02E0     		b	.L4
 227              	.L15:
 189:.\FrequencyCounter.c **** 	}
 190:.\FrequencyCounter.c **** 	/* If input frequency is greater than or equal to 1MHz, format the data to 
 191:.\FrequencyCounter.c **** 	*  display in units of MHz */
 192:.\FrequencyCounter.c **** 	else
 193:.\FrequencyCounter.c **** 	{
 194:.\FrequencyCounter.c **** 		FormatFrequencyData(FREQ_MHZ);
 228              		.loc 1 194 0
 229 00e4 0120     		mov	r0, #1
 230 00e6 FFF7FEFF 		bl	FormatFrequencyData
 231              	.L4:
 195:.\FrequencyCounter.c **** 	}
 196:.\FrequencyCounter.c **** }
 232              		.loc 1 196 0
 233 00ea BD46     		mov	sp, r7
 234 00ec 03B0     		add	sp, sp, #12
 235              		@ sp needed
 236 00ee 90BD     		pop	{r4, r7, pc}
 237              	.L17:
 238              		.align	2
 239              	.L16:
 240 00f0 00000000 		.word	Input_Signal_Counter2_Count
 241 00f4 00000000 		.word	Input_Signal_Counter1_Count
 242 00f8 00000000 		.word	Input_Signal_Count
 243 00fc 00000000 		.word	Ref_Clock_Counter2_Count
 244 0100 00000000 		.word	Ref_Clock_Counter1_Count
 245 0104 00000000 		.word	Ref_Clock_Count
 246 0108 001BB74A 		.word	1253513984
 247 010c 00000000 		.word	Freq_Integer
 248 0110 00000000 		.word	Input_Frequency
 249 0114 00007A44 		.word	1148846080
 250 0118 00000000 		.word	Freq_Decimal
 251 011c 00247449 		.word	1232348160
 252              		.cfi_endproc
 253              	.LFE38:
 254              		.size	Compute_Frequency, .-Compute_Frequency
 255              		.global	__aeabi_uidivmod
 256              		.global	__aeabi_uidiv
 257              		.section	.text.FormatFrequencyData,"ax",%progbits
 258              		.align	2
 259              		.global	FormatFrequencyData
 260              		.code	16
ARM GAS  C:\Users\owono\AppData\Local\Temp\ccQUw5d5.s 			page 9


 261              		.thumb_func
 262              		.type	FormatFrequencyData, %function
 263              	FormatFrequencyData:
 264              	.LFB39:
 197:.\FrequencyCounter.c **** 
 198:.\FrequencyCounter.c **** /*******************************************************************************
 199:.\FrequencyCounter.c **** * Function Name: FormatFrequencyData
 200:.\FrequencyCounter.c **** ********************************************************************************
 201:.\FrequencyCounter.c **** *
 202:.\FrequencyCounter.c **** * Summary:
 203:.\FrequencyCounter.c **** *  Function converts the computed frequency in hexadecimal to ASCII format 
 204:.\FrequencyCounter.c **** *  and stores in an array along with the unit of frequency 
 205:.\FrequencyCounter.c **** *
 206:.\FrequencyCounter.c **** * Parameters:
 207:.\FrequencyCounter.c **** *  FormatType: Value indicates the range of input frequency for formatting the 
 208:.\FrequencyCounter.c **** *			   input signal frequency
 209:.\FrequencyCounter.c **** *
 210:.\FrequencyCounter.c **** * Return:
 211:.\FrequencyCounter.c **** *  None
 212:.\FrequencyCounter.c **** *
 213:.\FrequencyCounter.c **** *******************************************************************************/
 214:.\FrequencyCounter.c **** void FormatFrequencyData(uint8 FormatType)
 215:.\FrequencyCounter.c **** {
 265              		.loc 1 215 0
 266              		.cfi_startproc
 267 0000 90B5     		push	{r4, r7, lr}
 268              		.cfi_def_cfa_offset 12
 269              		.cfi_offset 4, -12
 270              		.cfi_offset 7, -8
 271              		.cfi_offset 14, -4
 272 0002 85B0     		sub	sp, sp, #20
 273              		.cfi_def_cfa_offset 32
 274 0004 00AF     		add	r7, sp, #0
 275              		.cfi_def_cfa_register 7
 276 0006 021C     		mov	r2, r0
 277 0008 FB1D     		add	r3, r7, #7
 278 000a 1A70     		strb	r2, [r3]
 216:.\FrequencyCounter.c **** 	/* Variable to count the number of loops */
 217:.\FrequencyCounter.c **** 	uint8 loopNo = 0;
 279              		.loc 1 217 0
 280 000c 0F23     		mov	r3, #15
 281 000e FB18     		add	r3, r7, r3
 282 0010 0022     		mov	r2, #0
 283 0012 1A70     		strb	r2, [r3]
 218:.\FrequencyCounter.c **** 	
 219:.\FrequencyCounter.c **** 	/* If input frequency in in Hz, format the data to display in units of Hz */
 220:.\FrequencyCounter.c **** 	if((FormatType == FREQ_HZ) ||(FormatType == ZERO_HZ ))
 284              		.loc 1 220 0
 285 0014 FB1D     		add	r3, r7, #7
 286 0016 1B78     		ldrb	r3, [r3]
 287 0018 032B     		cmp	r3, #3
 288 001a 04D0     		beq	.L19
 289              		.loc 1 220 0 is_stmt 0 discriminator 1
 290 001c FB1D     		add	r3, r7, #7
 291 001e 1B78     		ldrb	r3, [r3]
 292 0020 042B     		cmp	r3, #4
 293 0022 00D0     		beq	.LCB222
ARM GAS  C:\Users\owono\AppData\Local\Temp\ccQUw5d5.s 			page 10


 294 0024 87E0     		b	.L20	@long jump
 295              	.LCB222:
 296              	.L19:
 221:.\FrequencyCounter.c **** 	{
 222:.\FrequencyCounter.c **** 		/* If frequency is less than 1KHZ, store " Hz" in the first 3 bytes of 
 223:.\FrequencyCounter.c **** 		*  Input_Frequency array */
 224:.\FrequencyCounter.c **** 		/* Store 'z" in the first byte of the array */
 225:.\FrequencyCounter.c **** 		Input_Frequency[0] = ASCII_z;
 297              		.loc 1 225 0 is_stmt 1
 298 0026 9A4B     		ldr	r3, .L37
 299 0028 7A22     		mov	r2, #122
 300 002a 1A70     		strb	r2, [r3]
 226:.\FrequencyCounter.c **** 		
 227:.\FrequencyCounter.c **** 		/* Store "H" in the second byte of the arrray */
 228:.\FrequencyCounter.c **** 		Input_Frequency[1] = ASCII_H;
 301              		.loc 1 228 0
 302 002c 984B     		ldr	r3, .L37
 303 002e 4822     		mov	r2, #72
 304 0030 5A70     		strb	r2, [r3, #1]
 229:.\FrequencyCounter.c **** 		
 230:.\FrequencyCounter.c **** 		/* Store space character in the third byte */
 231:.\FrequencyCounter.c **** 		Input_Frequency[2] = ASCII_SPACE;
 305              		.loc 1 231 0
 306 0032 974B     		ldr	r3, .L37
 307 0034 2022     		mov	r2, #32
 308 0036 9A70     		strb	r2, [r3, #2]
 232:.\FrequencyCounter.c **** 		
 233:.\FrequencyCounter.c **** 		if(FormatType == ZERO_HZ )
 309              		.loc 1 233 0
 310 0038 FB1D     		add	r3, r7, #7
 311 003a 1B78     		ldrb	r3, [r3]
 312 003c 042B     		cmp	r3, #4
 313 003e 05D1     		bne	.L21
 234:.\FrequencyCounter.c **** 		{
 235:.\FrequencyCounter.c **** 			Freq_Decimal = 0;
 314              		.loc 1 235 0
 315 0040 944B     		ldr	r3, .L37+4
 316 0042 0022     		mov	r2, #0
 317 0044 1A80     		strh	r2, [r3]
 236:.\FrequencyCounter.c **** 			Freq_Integer = 0;
 318              		.loc 1 236 0
 319 0046 944B     		ldr	r3, .L37+8
 320 0048 0022     		mov	r2, #0
 321 004a 1A60     		str	r2, [r3]
 322              	.L21:
 237:.\FrequencyCounter.c **** 		}
 238:.\FrequencyCounter.c **** 		
 239:.\FrequencyCounter.c **** 		/* Store the decimal digits from fourth byte in the array in ASCII format */
 240:.\FrequencyCounter.c **** 		for(loopNo = DATA_START; loopNo < DECIMAL_END; loopNo++)
 323              		.loc 1 240 0
 324 004c 0F23     		mov	r3, #15
 325 004e FB18     		add	r3, r7, r3
 326 0050 0322     		mov	r2, #3
 327 0052 1A70     		strb	r2, [r3]
 328 0054 2AE0     		b	.L22
 329              	.L23:
 241:.\FrequencyCounter.c **** 		{
ARM GAS  C:\Users\owono\AppData\Local\Temp\ccQUw5d5.s 			page 11


 242:.\FrequencyCounter.c **** 			/* Get the value of one's place of the integer */
 243:.\FrequencyCounter.c **** 			Input_Frequency[loopNo] = Freq_Decimal % 10;
 330              		.loc 1 243 0 discriminator 3
 331 0056 0F23     		mov	r3, #15
 332 0058 FB18     		add	r3, r7, r3
 333 005a 1C78     		ldrb	r4, [r3]
 334 005c 8D4B     		ldr	r3, .L37+4
 335 005e 1B88     		ldrh	r3, [r3]
 336 0060 181C     		mov	r0, r3
 337 0062 0A21     		mov	r1, #10
 338 0064 FFF7FEFF 		bl	__aeabi_uidivmod
 339 0068 0B1C     		mov	r3, r1
 340 006a 9BB2     		uxth	r3, r3
 341 006c DAB2     		uxtb	r2, r3
 342 006e 884B     		ldr	r3, .L37
 343 0070 1A55     		strb	r2, [r3, r4]
 244:.\FrequencyCounter.c **** 
 245:.\FrequencyCounter.c **** 			/* Convert the integer to ASCII */
 246:.\FrequencyCounter.c **** 			Input_Frequency[loopNo] += INTEGER_TO_ASCII;
 344              		.loc 1 246 0 discriminator 3
 345 0072 0F23     		mov	r3, #15
 346 0074 FB18     		add	r3, r7, r3
 347 0076 1B78     		ldrb	r3, [r3]
 348 0078 0F22     		mov	r2, #15
 349 007a BA18     		add	r2, r7, r2
 350 007c 1278     		ldrb	r2, [r2]
 351 007e 8449     		ldr	r1, .L37
 352 0080 8A5C     		ldrb	r2, [r1, r2]
 353 0082 3032     		add	r2, r2, #48
 354 0084 D1B2     		uxtb	r1, r2
 355 0086 824A     		ldr	r2, .L37
 356 0088 D154     		strb	r1, [r2, r3]
 247:.\FrequencyCounter.c **** 			
 248:.\FrequencyCounter.c **** 			/* Shift the Ten's place to one's place */
 249:.\FrequencyCounter.c **** 			Freq_Decimal /= 10;
 357              		.loc 1 249 0 discriminator 3
 358 008a 824B     		ldr	r3, .L37+4
 359 008c 1B88     		ldrh	r3, [r3]
 360 008e 181C     		mov	r0, r3
 361 0090 0A21     		mov	r1, #10
 362 0092 FFF7FEFF 		bl	__aeabi_uidiv
 363 0096 031C     		mov	r3, r0
 364 0098 9AB2     		uxth	r2, r3
 365 009a 7E4B     		ldr	r3, .L37+4
 366 009c 1A80     		strh	r2, [r3]
 240:.\FrequencyCounter.c **** 		{
 367              		.loc 1 240 0 discriminator 3
 368 009e 0F23     		mov	r3, #15
 369 00a0 FB18     		add	r3, r7, r3
 370 00a2 1A78     		ldrb	r2, [r3]
 371 00a4 0F23     		mov	r3, #15
 372 00a6 FB18     		add	r3, r7, r3
 373 00a8 0132     		add	r2, r2, #1
 374 00aa 1A70     		strb	r2, [r3]
 375              	.L22:
 240:.\FrequencyCounter.c **** 		{
 376              		.loc 1 240 0 is_stmt 0 discriminator 1
ARM GAS  C:\Users\owono\AppData\Local\Temp\ccQUw5d5.s 			page 12


 377 00ac 0F23     		mov	r3, #15
 378 00ae FB18     		add	r3, r7, r3
 379 00b0 1B78     		ldrb	r3, [r3]
 380 00b2 052B     		cmp	r3, #5
 381 00b4 CFD9     		bls	.L23
 250:.\FrequencyCounter.c **** 		}
 251:.\FrequencyCounter.c **** 		/* Store the decimal point in the array */
 252:.\FrequencyCounter.c **** 		Input_Frequency[loopNo++] = ASCII_DECIMAL_POINT;
 382              		.loc 1 252 0 is_stmt 1
 383 00b6 0F23     		mov	r3, #15
 384 00b8 FB18     		add	r3, r7, r3
 385 00ba 1B78     		ldrb	r3, [r3]
 386 00bc 0F22     		mov	r2, #15
 387 00be BA18     		add	r2, r7, r2
 388 00c0 591C     		add	r1, r3, #1
 389 00c2 1170     		strb	r1, [r2]
 390 00c4 1A1C     		mov	r2, r3
 391 00c6 724B     		ldr	r3, .L37
 392 00c8 2E21     		mov	r1, #46
 393 00ca 9954     		strb	r1, [r3, r2]
 253:.\FrequencyCounter.c **** 		
 254:.\FrequencyCounter.c **** 		/* Enter the integer digits in the array in ASCII format */
 255:.\FrequencyCounter.c **** 		while((Freq_Integer > 0) && (loopNo < DATA_END))
 394              		.loc 1 255 0
 395 00cc 29E0     		b	.L24
 396              	.L26:
 256:.\FrequencyCounter.c **** 		{
 257:.\FrequencyCounter.c **** 			/* Get the value of one's place of the integer */
 258:.\FrequencyCounter.c **** 			Input_Frequency[loopNo] = Freq_Integer % 10;
 397              		.loc 1 258 0
 398 00ce 0F23     		mov	r3, #15
 399 00d0 FB18     		add	r3, r7, r3
 400 00d2 1C78     		ldrb	r4, [r3]
 401 00d4 704B     		ldr	r3, .L37+8
 402 00d6 1B68     		ldr	r3, [r3]
 403 00d8 181C     		mov	r0, r3
 404 00da 0A21     		mov	r1, #10
 405 00dc FFF7FEFF 		bl	__aeabi_uidivmod
 406 00e0 0B1C     		mov	r3, r1
 407 00e2 DAB2     		uxtb	r2, r3
 408 00e4 6A4B     		ldr	r3, .L37
 409 00e6 1A55     		strb	r2, [r3, r4]
 259:.\FrequencyCounter.c **** 			
 260:.\FrequencyCounter.c **** 			/* Convert the integer to ASCII */
 261:.\FrequencyCounter.c **** 			Input_Frequency[loopNo] += INTEGER_TO_ASCII;
 410              		.loc 1 261 0
 411 00e8 0F23     		mov	r3, #15
 412 00ea FB18     		add	r3, r7, r3
 413 00ec 1B78     		ldrb	r3, [r3]
 414 00ee 0F22     		mov	r2, #15
 415 00f0 BA18     		add	r2, r7, r2
 416 00f2 1278     		ldrb	r2, [r2]
 417 00f4 6649     		ldr	r1, .L37
 418 00f6 8A5C     		ldrb	r2, [r1, r2]
 419 00f8 3032     		add	r2, r2, #48
 420 00fa D1B2     		uxtb	r1, r2
 421 00fc 644A     		ldr	r2, .L37
ARM GAS  C:\Users\owono\AppData\Local\Temp\ccQUw5d5.s 			page 13


 422 00fe D154     		strb	r1, [r2, r3]
 262:.\FrequencyCounter.c **** 			
 263:.\FrequencyCounter.c **** 			/* Shift the Ten's place to one's place */			
 264:.\FrequencyCounter.c **** 			Freq_Integer /= 10;
 423              		.loc 1 264 0
 424 0100 654B     		ldr	r3, .L37+8
 425 0102 1B68     		ldr	r3, [r3]
 426 0104 181C     		mov	r0, r3
 427 0106 0A21     		mov	r1, #10
 428 0108 FFF7FEFF 		bl	__aeabi_uidiv
 429 010c 031C     		mov	r3, r0
 430 010e 1A1C     		mov	r2, r3
 431 0110 614B     		ldr	r3, .L37+8
 432 0112 1A60     		str	r2, [r3]
 265:.\FrequencyCounter.c **** 			
 266:.\FrequencyCounter.c **** 			loopNo++;
 433              		.loc 1 266 0
 434 0114 0F23     		mov	r3, #15
 435 0116 FB18     		add	r3, r7, r3
 436 0118 1A78     		ldrb	r2, [r3]
 437 011a 0F23     		mov	r3, #15
 438 011c FB18     		add	r3, r7, r3
 439 011e 0132     		add	r2, r2, #1
 440 0120 1A70     		strb	r2, [r3]
 441              	.L24:
 255:.\FrequencyCounter.c **** 		{
 442              		.loc 1 255 0
 443 0122 5D4B     		ldr	r3, .L37+8
 444 0124 1B68     		ldr	r3, [r3]
 445 0126 002B     		cmp	r3, #0
 446 0128 04D0     		beq	.L25
 255:.\FrequencyCounter.c **** 		{
 447              		.loc 1 255 0 is_stmt 0 discriminator 1
 448 012a 0F23     		mov	r3, #15
 449 012c FB18     		add	r3, r7, r3
 450 012e 1B78     		ldrb	r3, [r3]
 451 0130 092B     		cmp	r3, #9
 452 0132 CCD9     		bls	.L26
 453              	.L25:
 220:.\FrequencyCounter.c **** 	{
 454              		.loc 1 220 0 is_stmt 1
 455 0134 A9E0     		b	.L18
 456              	.L20:
 267:.\FrequencyCounter.c **** 		}
 268:.\FrequencyCounter.c **** 	}
 269:.\FrequencyCounter.c **** 	else if(FormatType == FREQ_KHZ)
 457              		.loc 1 269 0
 458 0136 FB1D     		add	r3, r7, #7
 459 0138 1B78     		ldrb	r3, [r3]
 460 013a 022B     		cmp	r3, #2
 461 013c 4DD1     		bne	.L28
 270:.\FrequencyCounter.c **** 	{
 271:.\FrequencyCounter.c **** 		/* If frequency is less than 1MHZ, store "KHz" in the first 3 bytes of Frequency_Format array */
 272:.\FrequencyCounter.c **** 		/* Store 'z" in the first byte of the array */
 273:.\FrequencyCounter.c **** 		Input_Frequency[0] = ASCII_z;
 462              		.loc 1 273 0
 463 013e 544B     		ldr	r3, .L37
ARM GAS  C:\Users\owono\AppData\Local\Temp\ccQUw5d5.s 			page 14


 464 0140 7A22     		mov	r2, #122
 465 0142 1A70     		strb	r2, [r3]
 274:.\FrequencyCounter.c **** 		
 275:.\FrequencyCounter.c **** 		/* Store "H" in the second byte of the array */		
 276:.\FrequencyCounter.c **** 		Input_Frequency[1] = ASCII_H;
 466              		.loc 1 276 0
 467 0144 524B     		ldr	r3, .L37
 468 0146 4822     		mov	r2, #72
 469 0148 5A70     		strb	r2, [r3, #1]
 277:.\FrequencyCounter.c **** 
 278:.\FrequencyCounter.c **** 		/* Store "K" in the third byte of the array */	
 279:.\FrequencyCounter.c **** 		Input_Frequency[2] = ASCII_K;
 470              		.loc 1 279 0
 471 014a 514B     		ldr	r3, .L37
 472 014c 4B22     		mov	r2, #75
 473 014e 9A70     		strb	r2, [r3, #2]
 280:.\FrequencyCounter.c **** 		
 281:.\FrequencyCounter.c **** 		/* Enter the frequency in ASCII format from fourth byte */
 282:.\FrequencyCounter.c **** 		loopNo = DATA_START;
 474              		.loc 1 282 0
 475 0150 0F23     		mov	r3, #15
 476 0152 FB18     		add	r3, r7, r3
 477 0154 0322     		mov	r2, #3
 478 0156 1A70     		strb	r2, [r3]
 283:.\FrequencyCounter.c **** 		
 284:.\FrequencyCounter.c **** 		/* Convert the frequency value from hexadecimal to decimal */
 285:.\FrequencyCounter.c **** 		while((Freq_Integer > 0) && (loopNo < DATA_END))
 479              		.loc 1 285 0
 480 0158 35E0     		b	.L29
 481              	.L32:
 286:.\FrequencyCounter.c **** 		{
 287:.\FrequencyCounter.c **** 			if(loopNo != DECIMAL_END)
 482              		.loc 1 287 0
 483 015a 0F23     		mov	r3, #15
 484 015c FB18     		add	r3, r7, r3
 485 015e 1B78     		ldrb	r3, [r3]
 486 0160 062B     		cmp	r3, #6
 487 0162 23D0     		beq	.L30
 288:.\FrequencyCounter.c **** 			{
 289:.\FrequencyCounter.c **** 				/* Get the value of one's place of the integer */
 290:.\FrequencyCounter.c **** 				Input_Frequency[loopNo] = Freq_Integer % 10;
 488              		.loc 1 290 0
 489 0164 0F23     		mov	r3, #15
 490 0166 FB18     		add	r3, r7, r3
 491 0168 1C78     		ldrb	r4, [r3]
 492 016a 4B4B     		ldr	r3, .L37+8
 493 016c 1B68     		ldr	r3, [r3]
 494 016e 181C     		mov	r0, r3
 495 0170 0A21     		mov	r1, #10
 496 0172 FFF7FEFF 		bl	__aeabi_uidivmod
 497 0176 0B1C     		mov	r3, r1
 498 0178 DAB2     		uxtb	r2, r3
 499 017a 454B     		ldr	r3, .L37
 500 017c 1A55     		strb	r2, [r3, r4]
 291:.\FrequencyCounter.c **** 				
 292:.\FrequencyCounter.c **** 				/* Convert the integer to ASCII */
 293:.\FrequencyCounter.c **** 				Input_Frequency[loopNo] += INTEGER_TO_ASCII;
ARM GAS  C:\Users\owono\AppData\Local\Temp\ccQUw5d5.s 			page 15


 501              		.loc 1 293 0
 502 017e 0F23     		mov	r3, #15
 503 0180 FB18     		add	r3, r7, r3
 504 0182 1B78     		ldrb	r3, [r3]
 505 0184 0F22     		mov	r2, #15
 506 0186 BA18     		add	r2, r7, r2
 507 0188 1278     		ldrb	r2, [r2]
 508 018a 4149     		ldr	r1, .L37
 509 018c 8A5C     		ldrb	r2, [r1, r2]
 510 018e 3032     		add	r2, r2, #48
 511 0190 D1B2     		uxtb	r1, r2
 512 0192 3F4A     		ldr	r2, .L37
 513 0194 D154     		strb	r1, [r2, r3]
 294:.\FrequencyCounter.c **** 
 295:.\FrequencyCounter.c **** 				/* Shift the Ten's place to one's place */					
 296:.\FrequencyCounter.c **** 				Freq_Integer /= 10;
 514              		.loc 1 296 0
 515 0196 404B     		ldr	r3, .L37+8
 516 0198 1B68     		ldr	r3, [r3]
 517 019a 181C     		mov	r0, r3
 518 019c 0A21     		mov	r1, #10
 519 019e FFF7FEFF 		bl	__aeabi_uidiv
 520 01a2 031C     		mov	r3, r0
 521 01a4 1A1C     		mov	r2, r3
 522 01a6 3C4B     		ldr	r3, .L37+8
 523 01a8 1A60     		str	r2, [r3]
 524 01aa 05E0     		b	.L31
 525              	.L30:
 297:.\FrequencyCounter.c **** 			}
 298:.\FrequencyCounter.c **** 			/* After decimal digits are entered, store the decimal point in 
 299:.\FrequencyCounter.c **** 			*  the 7th byte of Input_Frequency[] array*/
 300:.\FrequencyCounter.c **** 			else
 301:.\FrequencyCounter.c **** 				Input_Frequency[loopNo] = ASCII_DECIMAL_POINT;
 526              		.loc 1 301 0
 527 01ac 0F23     		mov	r3, #15
 528 01ae FB18     		add	r3, r7, r3
 529 01b0 1B78     		ldrb	r3, [r3]
 530 01b2 374A     		ldr	r2, .L37
 531 01b4 2E21     		mov	r1, #46
 532 01b6 D154     		strb	r1, [r2, r3]
 533              	.L31:
 302:.\FrequencyCounter.c **** 				
 303:.\FrequencyCounter.c **** 			loopNo++;
 534              		.loc 1 303 0
 535 01b8 0F23     		mov	r3, #15
 536 01ba FB18     		add	r3, r7, r3
 537 01bc 1A78     		ldrb	r2, [r3]
 538 01be 0F23     		mov	r3, #15
 539 01c0 FB18     		add	r3, r7, r3
 540 01c2 0132     		add	r2, r2, #1
 541 01c4 1A70     		strb	r2, [r3]
 542              	.L29:
 285:.\FrequencyCounter.c **** 		{
 543              		.loc 1 285 0
 544 01c6 344B     		ldr	r3, .L37+8
 545 01c8 1B68     		ldr	r3, [r3]
 546 01ca 002B     		cmp	r3, #0
ARM GAS  C:\Users\owono\AppData\Local\Temp\ccQUw5d5.s 			page 16


 547 01cc 5DD0     		beq	.L18
 285:.\FrequencyCounter.c **** 		{
 548              		.loc 1 285 0 is_stmt 0 discriminator 1
 549 01ce 0F23     		mov	r3, #15
 550 01d0 FB18     		add	r3, r7, r3
 551 01d2 1B78     		ldrb	r3, [r3]
 552 01d4 092B     		cmp	r3, #9
 553 01d6 C0D9     		bls	.L32
 554 01d8 57E0     		b	.L18
 555              	.L28:
 304:.\FrequencyCounter.c **** 		}
 305:.\FrequencyCounter.c **** 	}
 306:.\FrequencyCounter.c **** 	else
 307:.\FrequencyCounter.c **** 	{
 308:.\FrequencyCounter.c **** 		/* If frequency is above or equal to 1 MHZ, store "MHz" in the first 3 bytes of Frequency_Format 
 309:.\FrequencyCounter.c **** 		
 310:.\FrequencyCounter.c **** 		/* Store 'z" in the first byte of the array */
 311:.\FrequencyCounter.c **** 		Input_Frequency[0] = ASCII_z;
 556              		.loc 1 311 0 is_stmt 1
 557 01da 2D4B     		ldr	r3, .L37
 558 01dc 7A22     		mov	r2, #122
 559 01de 1A70     		strb	r2, [r3]
 312:.\FrequencyCounter.c **** 		
 313:.\FrequencyCounter.c **** 		/* Store "H" in the second byte of the array */	
 314:.\FrequencyCounter.c **** 		Input_Frequency[1] = ASCII_H;
 560              		.loc 1 314 0
 561 01e0 2B4B     		ldr	r3, .L37
 562 01e2 4822     		mov	r2, #72
 563 01e4 5A70     		strb	r2, [r3, #1]
 315:.\FrequencyCounter.c **** 
 316:.\FrequencyCounter.c **** 		/* Store "M" in the third byte of the array */		
 317:.\FrequencyCounter.c **** 		Input_Frequency[2] = ASCII_M;
 564              		.loc 1 317 0
 565 01e6 2A4B     		ldr	r3, .L37
 566 01e8 4D22     		mov	r2, #77
 567 01ea 9A70     		strb	r2, [r3, #2]
 318:.\FrequencyCounter.c **** 
 319:.\FrequencyCounter.c **** 		/* For frequencies greater than or equal to 1 MHZ, decimal digits will represent the "KHz" freque
 320:.\FrequencyCounter.c **** 		Freq_Integer = Freq_Integer/1000;
 568              		.loc 1 320 0
 569 01ec 2A4B     		ldr	r3, .L37+8
 570 01ee 1B68     		ldr	r3, [r3]
 571 01f0 181C     		mov	r0, r3
 572 01f2 FA23     		mov	r3, #250
 573 01f4 9900     		lsl	r1, r3, #2
 574 01f6 FFF7FEFF 		bl	__aeabi_uidiv
 575 01fa 031C     		mov	r3, r0
 576 01fc 1A1C     		mov	r2, r3
 577 01fe 264B     		ldr	r3, .L37+8
 578 0200 1A60     		str	r2, [r3]
 321:.\FrequencyCounter.c **** 		
 322:.\FrequencyCounter.c **** 		/* Enter the frequency in ASCII format from fourth byte */
 323:.\FrequencyCounter.c **** 		loopNo = DATA_START;
 579              		.loc 1 323 0
 580 0202 0F23     		mov	r3, #15
 581 0204 FB18     		add	r3, r7, r3
 582 0206 0322     		mov	r2, #3
ARM GAS  C:\Users\owono\AppData\Local\Temp\ccQUw5d5.s 			page 17


 583 0208 1A70     		strb	r2, [r3]
 324:.\FrequencyCounter.c **** 		
 325:.\FrequencyCounter.c **** 		while((Freq_Integer > 0) && (loopNo < DATA_END))
 584              		.loc 1 325 0
 585 020a 35E0     		b	.L33
 586              	.L36:
 326:.\FrequencyCounter.c **** 		{
 327:.\FrequencyCounter.c **** 			if(loopNo != DECIMAL_END)
 587              		.loc 1 327 0
 588 020c 0F23     		mov	r3, #15
 589 020e FB18     		add	r3, r7, r3
 590 0210 1B78     		ldrb	r3, [r3]
 591 0212 062B     		cmp	r3, #6
 592 0214 23D0     		beq	.L34
 328:.\FrequencyCounter.c **** 			{
 329:.\FrequencyCounter.c **** 				/* Get the value of one's place of the integer */
 330:.\FrequencyCounter.c **** 				Input_Frequency[loopNo] = Freq_Integer % 10;
 593              		.loc 1 330 0
 594 0216 0F23     		mov	r3, #15
 595 0218 FB18     		add	r3, r7, r3
 596 021a 1C78     		ldrb	r4, [r3]
 597 021c 1E4B     		ldr	r3, .L37+8
 598 021e 1B68     		ldr	r3, [r3]
 599 0220 181C     		mov	r0, r3
 600 0222 0A21     		mov	r1, #10
 601 0224 FFF7FEFF 		bl	__aeabi_uidivmod
 602 0228 0B1C     		mov	r3, r1
 603 022a DAB2     		uxtb	r2, r3
 604 022c 184B     		ldr	r3, .L37
 605 022e 1A55     		strb	r2, [r3, r4]
 331:.\FrequencyCounter.c **** 				
 332:.\FrequencyCounter.c **** 				/* Convert the integer to ASCII */
 333:.\FrequencyCounter.c **** 				Input_Frequency[loopNo] += INTEGER_TO_ASCII;
 606              		.loc 1 333 0
 607 0230 0F23     		mov	r3, #15
 608 0232 FB18     		add	r3, r7, r3
 609 0234 1B78     		ldrb	r3, [r3]
 610 0236 0F22     		mov	r2, #15
 611 0238 BA18     		add	r2, r7, r2
 612 023a 1278     		ldrb	r2, [r2]
 613 023c 1449     		ldr	r1, .L37
 614 023e 8A5C     		ldrb	r2, [r1, r2]
 615 0240 3032     		add	r2, r2, #48
 616 0242 D1B2     		uxtb	r1, r2
 617 0244 124A     		ldr	r2, .L37
 618 0246 D154     		strb	r1, [r2, r3]
 334:.\FrequencyCounter.c **** 
 335:.\FrequencyCounter.c **** 				/* Shift the Ten's place to one's place */					
 336:.\FrequencyCounter.c **** 				Freq_Integer /= 10;
 619              		.loc 1 336 0
 620 0248 134B     		ldr	r3, .L37+8
 621 024a 1B68     		ldr	r3, [r3]
 622 024c 181C     		mov	r0, r3
 623 024e 0A21     		mov	r1, #10
 624 0250 FFF7FEFF 		bl	__aeabi_uidiv
 625 0254 031C     		mov	r3, r0
 626 0256 1A1C     		mov	r2, r3
ARM GAS  C:\Users\owono\AppData\Local\Temp\ccQUw5d5.s 			page 18


 627 0258 0F4B     		ldr	r3, .L37+8
 628 025a 1A60     		str	r2, [r3]
 629 025c 05E0     		b	.L35
 630              	.L34:
 337:.\FrequencyCounter.c **** 			}
 338:.\FrequencyCounter.c **** 			/* If decimal digits are entered, store the decimal point in 7th byte in the array*/
 339:.\FrequencyCounter.c **** 			else
 340:.\FrequencyCounter.c **** 				Input_Frequency[loopNo] = ASCII_DECIMAL_POINT;
 631              		.loc 1 340 0
 632 025e 0F23     		mov	r3, #15
 633 0260 FB18     		add	r3, r7, r3
 634 0262 1B78     		ldrb	r3, [r3]
 635 0264 0A4A     		ldr	r2, .L37
 636 0266 2E21     		mov	r1, #46
 637 0268 D154     		strb	r1, [r2, r3]
 638              	.L35:
 341:.\FrequencyCounter.c **** 				
 342:.\FrequencyCounter.c **** 			loopNo++;
 639              		.loc 1 342 0
 640 026a 0F23     		mov	r3, #15
 641 026c FB18     		add	r3, r7, r3
 642 026e 1A78     		ldrb	r2, [r3]
 643 0270 0F23     		mov	r3, #15
 644 0272 FB18     		add	r3, r7, r3
 645 0274 0132     		add	r2, r2, #1
 646 0276 1A70     		strb	r2, [r3]
 647              	.L33:
 325:.\FrequencyCounter.c **** 		{
 648              		.loc 1 325 0
 649 0278 074B     		ldr	r3, .L37+8
 650 027a 1B68     		ldr	r3, [r3]
 651 027c 002B     		cmp	r3, #0
 652 027e 04D0     		beq	.L18
 325:.\FrequencyCounter.c **** 		{
 653              		.loc 1 325 0 is_stmt 0 discriminator 1
 654 0280 0F23     		mov	r3, #15
 655 0282 FB18     		add	r3, r7, r3
 656 0284 1B78     		ldrb	r3, [r3]
 657 0286 092B     		cmp	r3, #9
 658 0288 C0D9     		bls	.L36
 659              	.L18:
 343:.\FrequencyCounter.c **** 		}
 344:.\FrequencyCounter.c **** 	}
 345:.\FrequencyCounter.c **** }
 660              		.loc 1 345 0 is_stmt 1
 661 028a BD46     		mov	sp, r7
 662 028c 05B0     		add	sp, sp, #20
 663              		@ sp needed
 664 028e 90BD     		pop	{r4, r7, pc}
 665              	.L38:
 666              		.align	2
 667              	.L37:
 668 0290 00000000 		.word	Input_Frequency
 669 0294 00000000 		.word	Freq_Decimal
 670 0298 00000000 		.word	Freq_Integer
 671              		.cfi_endproc
 672              	.LFE39:
ARM GAS  C:\Users\owono\AppData\Local\Temp\ccQUw5d5.s 			page 19


 673              		.size	FormatFrequencyData, .-FormatFrequencyData
 674              		.section	.text.Convert_HextoDec,"ax",%progbits
 675              		.align	2
 676              		.global	Convert_HextoDec
 677              		.code	16
 678              		.thumb_func
 679              		.type	Convert_HextoDec, %function
 680              	Convert_HextoDec:
 681              	.LFB40:
 346:.\FrequencyCounter.c **** 
 347:.\FrequencyCounter.c **** /*******************************************************************************
 348:.\FrequencyCounter.c **** * Function Name: Convert_HextoDec
 349:.\FrequencyCounter.c **** ********************************************************************************
 350:.\FrequencyCounter.c **** *
 351:.\FrequencyCounter.c **** * Summary:
 352:.\FrequencyCounter.c **** *  Function converts 32bit hexadecimal value to integer and stores in an array in 
 353:.\FrequencyCounter.c **** *  ASCII format
 354:.\FrequencyCounter.c **** *
 355:.\FrequencyCounter.c **** * Parameters:
 356:.\FrequencyCounter.c **** *  SourceValue: The input value which should be represented in integer format
 357:.\FrequencyCounter.c **** *  DestinationAddress: Pointer to the array in which the ASCII values of the integer 
 358:.\FrequencyCounter.c **** *  value should be stored.
 359:.\FrequencyCounter.c **** *
 360:.\FrequencyCounter.c **** * Return:
 361:.\FrequencyCounter.c **** *  None
 362:.\FrequencyCounter.c **** *
 363:.\FrequencyCounter.c **** *******************************************************************************/
 364:.\FrequencyCounter.c **** void Convert_HextoDec(uint32 SourceValue, uint8* DestinationAddress)
 365:.\FrequencyCounter.c **** {
 682              		.loc 1 365 0
 683              		.cfi_startproc
 684 0000 80B5     		push	{r7, lr}
 685              		.cfi_def_cfa_offset 8
 686              		.cfi_offset 7, -8
 687              		.cfi_offset 14, -4
 688 0002 82B0     		sub	sp, sp, #8
 689              		.cfi_def_cfa_offset 16
 690 0004 00AF     		add	r7, sp, #0
 691              		.cfi_def_cfa_register 7
 692 0006 7860     		str	r0, [r7, #4]
 693 0008 3960     		str	r1, [r7]
 366:.\FrequencyCounter.c **** 	while(SourceValue > 0)
 694              		.loc 1 366 0
 695 000a 18E0     		b	.L40
 696              	.L41:
 367:.\FrequencyCounter.c **** 	{
 368:.\FrequencyCounter.c **** 			/* Get the value of one's place of the integer */
 369:.\FrequencyCounter.c **** 			*DestinationAddress = SourceValue % 10;
 697              		.loc 1 369 0
 698 000c 7B68     		ldr	r3, [r7, #4]
 699 000e 181C     		mov	r0, r3
 700 0010 0A21     		mov	r1, #10
 701 0012 FFF7FEFF 		bl	__aeabi_uidivmod
 702 0016 0B1C     		mov	r3, r1
 703 0018 DAB2     		uxtb	r2, r3
 704 001a 3B68     		ldr	r3, [r7]
 705 001c 1A70     		strb	r2, [r3]
ARM GAS  C:\Users\owono\AppData\Local\Temp\ccQUw5d5.s 			page 20


 370:.\FrequencyCounter.c **** 			
 371:.\FrequencyCounter.c **** 			/* Convert the integer to ASCII */
 372:.\FrequencyCounter.c **** 			*DestinationAddress += INTEGER_TO_ASCII;
 706              		.loc 1 372 0
 707 001e 3B68     		ldr	r3, [r7]
 708 0020 1B78     		ldrb	r3, [r3]
 709 0022 3033     		add	r3, r3, #48
 710 0024 DAB2     		uxtb	r2, r3
 711 0026 3B68     		ldr	r3, [r7]
 712 0028 1A70     		strb	r2, [r3]
 373:.\FrequencyCounter.c **** 
 374:.\FrequencyCounter.c **** 			/* Shift the Ten's place to one's place */					
 375:.\FrequencyCounter.c **** 			SourceValue /= 10;
 713              		.loc 1 375 0
 714 002a 7B68     		ldr	r3, [r7, #4]
 715 002c 181C     		mov	r0, r3
 716 002e 0A21     		mov	r1, #10
 717 0030 FFF7FEFF 		bl	__aeabi_uidiv
 718 0034 031C     		mov	r3, r0
 719 0036 7B60     		str	r3, [r7, #4]
 376:.\FrequencyCounter.c **** 		
 377:.\FrequencyCounter.c **** 			DestinationAddress++;
 720              		.loc 1 377 0
 721 0038 3B68     		ldr	r3, [r7]
 722 003a 0133     		add	r3, r3, #1
 723 003c 3B60     		str	r3, [r7]
 724              	.L40:
 366:.\FrequencyCounter.c **** 	{
 725              		.loc 1 366 0
 726 003e 7B68     		ldr	r3, [r7, #4]
 727 0040 002B     		cmp	r3, #0
 728 0042 E3D1     		bne	.L41
 378:.\FrequencyCounter.c **** 	}
 379:.\FrequencyCounter.c **** }
 729              		.loc 1 379 0
 730 0044 BD46     		mov	sp, r7
 731 0046 02B0     		add	sp, sp, #8
 732              		@ sp needed
 733 0048 80BD     		pop	{r7, pc}
 734              		.cfi_endproc
 735              	.LFE40:
 736              		.size	Convert_HextoDec, .-Convert_HextoDec
 737 004a C046     		.section	.text.Reset_Array,"ax",%progbits
 738              		.align	2
 739              		.global	Reset_Array
 740              		.code	16
 741              		.thumb_func
 742              		.type	Reset_Array, %function
 743              	Reset_Array:
 744              	.LFB41:
 380:.\FrequencyCounter.c **** 
 381:.\FrequencyCounter.c **** /*******************************************************************************
 382:.\FrequencyCounter.c **** * Function Name: Reset_Array
 383:.\FrequencyCounter.c **** ********************************************************************************
 384:.\FrequencyCounter.c **** *
 385:.\FrequencyCounter.c **** * Summary:
 386:.\FrequencyCounter.c **** *  Function resets all the bytes in the array to 0x20 (hex value for space) 
ARM GAS  C:\Users\owono\AppData\Local\Temp\ccQUw5d5.s 			page 21


 387:.\FrequencyCounter.c **** *
 388:.\FrequencyCounter.c **** * Parameters:
 389:.\FrequencyCounter.c **** *  DestinationAddress: Pointer to the array whose value needs to be reset to 0x20
 390:.\FrequencyCounter.c **** *  noOfBytes: Number of bytes that needs to be reset in the array.
 391:.\FrequencyCounter.c **** *
 392:.\FrequencyCounter.c **** * Return:
 393:.\FrequencyCounter.c **** *  None
 394:.\FrequencyCounter.c **** *
 395:.\FrequencyCounter.c **** *******************************************************************************/
 396:.\FrequencyCounter.c **** void Reset_Array(uint8 *DestinationAddress, uint8 noOfBytes)
 397:.\FrequencyCounter.c **** {
 745              		.loc 1 397 0
 746              		.cfi_startproc
 747 0000 80B5     		push	{r7, lr}
 748              		.cfi_def_cfa_offset 8
 749              		.cfi_offset 7, -8
 750              		.cfi_offset 14, -4
 751 0002 84B0     		sub	sp, sp, #16
 752              		.cfi_def_cfa_offset 24
 753 0004 00AF     		add	r7, sp, #0
 754              		.cfi_def_cfa_register 7
 755 0006 7860     		str	r0, [r7, #4]
 756 0008 0A1C     		mov	r2, r1
 757 000a FB1C     		add	r3, r7, #3
 758 000c 1A70     		strb	r2, [r3]
 398:.\FrequencyCounter.c **** 	uint8 loopNo = 0;
 759              		.loc 1 398 0
 760 000e 0F23     		mov	r3, #15
 761 0010 FB18     		add	r3, r7, r3
 762 0012 0022     		mov	r2, #0
 763 0014 1A70     		strb	r2, [r3]
 399:.\FrequencyCounter.c ****  	
 400:.\FrequencyCounter.c **** 	/* Reset all the bytes in the array to hexadecimal value of 0x20 */
 401:.\FrequencyCounter.c **** 	for(loopNo = 0; loopNo < noOfBytes; loopNo++)
 764              		.loc 1 401 0
 765 0016 0F23     		mov	r3, #15
 766 0018 FB18     		add	r3, r7, r3
 767 001a 0022     		mov	r2, #0
 768 001c 1A70     		strb	r2, [r3]
 769 001e 0CE0     		b	.L43
 770              	.L44:
 402:.\FrequencyCounter.c **** 	{
 403:.\FrequencyCounter.c **** 		*DestinationAddress = ASCII_SPACE;
 771              		.loc 1 403 0 discriminator 3
 772 0020 7B68     		ldr	r3, [r7, #4]
 773 0022 2022     		mov	r2, #32
 774 0024 1A70     		strb	r2, [r3]
 404:.\FrequencyCounter.c **** 		DestinationAddress++;
 775              		.loc 1 404 0 discriminator 3
 776 0026 7B68     		ldr	r3, [r7, #4]
 777 0028 0133     		add	r3, r3, #1
 778 002a 7B60     		str	r3, [r7, #4]
 401:.\FrequencyCounter.c **** 	{
 779              		.loc 1 401 0 discriminator 3
 780 002c 0F23     		mov	r3, #15
 781 002e FB18     		add	r3, r7, r3
 782 0030 1A78     		ldrb	r2, [r3]
ARM GAS  C:\Users\owono\AppData\Local\Temp\ccQUw5d5.s 			page 22


 783 0032 0F23     		mov	r3, #15
 784 0034 FB18     		add	r3, r7, r3
 785 0036 0132     		add	r2, r2, #1
 786 0038 1A70     		strb	r2, [r3]
 787              	.L43:
 401:.\FrequencyCounter.c **** 	{
 788              		.loc 1 401 0 is_stmt 0 discriminator 1
 789 003a 0F23     		mov	r3, #15
 790 003c FA18     		add	r2, r7, r3
 791 003e FB1C     		add	r3, r7, #3
 792 0040 1278     		ldrb	r2, [r2]
 793 0042 1B78     		ldrb	r3, [r3]
 794 0044 9A42     		cmp	r2, r3
 795 0046 EBD3     		bcc	.L44
 405:.\FrequencyCounter.c **** 	}
 406:.\FrequencyCounter.c **** }
 796              		.loc 1 406 0 is_stmt 1
 797 0048 BD46     		mov	sp, r7
 798 004a 04B0     		add	sp, sp, #16
 799              		@ sp needed
 800 004c 80BD     		pop	{r7, pc}
 801              		.cfi_endproc
 802              	.LFE41:
 803              		.size	Reset_Array, .-Reset_Array
 804 004e C046     		.section	.text.PWM_2s_InterruptHandler,"ax",%progbits
 805              		.align	2
 806              		.global	PWM_2s_InterruptHandler
 807              		.code	16
 808              		.thumb_func
 809              		.type	PWM_2s_InterruptHandler, %function
 810              	PWM_2s_InterruptHandler:
 811              	.LFB42:
 407:.\FrequencyCounter.c **** 
 408:.\FrequencyCounter.c **** /*******************************************************************************
 409:.\FrequencyCounter.c **** * Function Name: PWM_2s_InterruptHandler
 410:.\FrequencyCounter.c **** ********************************************************************************
 411:.\FrequencyCounter.c **** *
 412:.\FrequencyCounter.c **** * Summary:
 413:.\FrequencyCounter.c **** *   The custom Interrupt Service Routine for PWM_2s ISR.
 414:.\FrequencyCounter.c **** *
 415:.\FrequencyCounter.c **** * Parameters:  
 416:.\FrequencyCounter.c **** *   None
 417:.\FrequencyCounter.c **** *
 418:.\FrequencyCounter.c **** * Return:
 419:.\FrequencyCounter.c **** *   None
 420:.\FrequencyCounter.c **** *
 421:.\FrequencyCounter.c **** *******************************************************************************/
 422:.\FrequencyCounter.c **** CY_ISR(PWM_2s_InterruptHandler)
 423:.\FrequencyCounter.c **** {
 812              		.loc 1 423 0
 813              		.cfi_startproc
 814 0000 80B5     		push	{r7, lr}
 815              		.cfi_def_cfa_offset 8
 816              		.cfi_offset 7, -8
 817              		.cfi_offset 14, -4
 818 0002 00AF     		add	r7, sp, #0
 819              		.cfi_def_cfa_register 7
ARM GAS  C:\Users\owono\AppData\Local\Temp\ccQUw5d5.s 			page 23


 424:.\FrequencyCounter.c **** 	static uint8 FirstTime = 0;
 425:.\FrequencyCounter.c **** 	
 426:.\FrequencyCounter.c ****     /* Clear ISR for next interrupt */
 427:.\FrequencyCounter.c **** 	PWM_2s_ReadStatusRegister();
 820              		.loc 1 427 0
 821 0004 FFF7FEFF 		bl	PWM_2s_ReadStatusRegister
 428:.\FrequencyCounter.c **** 	
 429:.\FrequencyCounter.c **** 	/* If this is the first ISR after device reset, do not set the Calculate_Frequency variable */
 430:.\FrequencyCounter.c **** 	if(!FirstTime)
 822              		.loc 1 430 0
 823 0008 064B     		ldr	r3, .L48
 824 000a 1B78     		ldrb	r3, [r3]
 825 000c 002B     		cmp	r3, #0
 826 000e 03D1     		bne	.L46
 431:.\FrequencyCounter.c **** 	{
 432:.\FrequencyCounter.c **** 		FirstTime = 1;
 827              		.loc 1 432 0
 828 0010 044B     		ldr	r3, .L48
 829 0012 0122     		mov	r2, #1
 830 0014 1A70     		strb	r2, [r3]
 831 0016 02E0     		b	.L45
 832              	.L46:
 433:.\FrequencyCounter.c **** 	}
 434:.\FrequencyCounter.c **** 	else
 435:.\FrequencyCounter.c **** 	{
 436:.\FrequencyCounter.c **** 		/* Set the 2s interval flag to indicate CPU to compute the frequency */
 437:.\FrequencyCounter.c **** 		Calculate_Frequency = 1;
 833              		.loc 1 437 0
 834 0018 034B     		ldr	r3, .L48+4
 835 001a 0122     		mov	r2, #1
 836 001c 1A70     		strb	r2, [r3]
 837              	.L45:
 438:.\FrequencyCounter.c **** 	}
 439:.\FrequencyCounter.c **** }
 838              		.loc 1 439 0
 839 001e BD46     		mov	sp, r7
 840              		@ sp needed
 841 0020 80BD     		pop	{r7, pc}
 842              	.L49:
 843 0022 C046     		.align	2
 844              	.L48:
 845 0024 00000000 		.word	FirstTime.7653
 846 0028 00000000 		.word	Calculate_Frequency
 847              		.cfi_endproc
 848              	.LFE42:
 849              		.size	PWM_2s_InterruptHandler, .-PWM_2s_InterruptHandler
 850              		.section	.text.Input_Sig_Ctr_InterruptHandler,"ax",%progbits
 851              		.align	2
 852              		.global	Input_Sig_Ctr_InterruptHandler
 853              		.code	16
 854              		.thumb_func
 855              		.type	Input_Sig_Ctr_InterruptHandler, %function
 856              	Input_Sig_Ctr_InterruptHandler:
 857              	.LFB43:
 440:.\FrequencyCounter.c **** 
 441:.\FrequencyCounter.c **** /*******************************************************************************
 442:.\FrequencyCounter.c **** * Function Name: Input_Sig_Ctr_InterruptHandler
ARM GAS  C:\Users\owono\AppData\Local\Temp\ccQUw5d5.s 			page 24


 443:.\FrequencyCounter.c **** ********************************************************************************
 444:.\FrequencyCounter.c **** *
 445:.\FrequencyCounter.c **** * Summary:
 446:.\FrequencyCounter.c **** *   The custom Interrupt Service Routine for Input_Sig_Ctr ISR.
 447:.\FrequencyCounter.c **** *
 448:.\FrequencyCounter.c **** * Parameters:  
 449:.\FrequencyCounter.c **** *   None
 450:.\FrequencyCounter.c **** *
 451:.\FrequencyCounter.c **** * Return:
 452:.\FrequencyCounter.c **** *   None
 453:.\FrequencyCounter.c **** *
 454:.\FrequencyCounter.c **** *******************************************************************************/
 455:.\FrequencyCounter.c **** CY_ISR(Input_Sig_Ctr_InterruptHandler)
 456:.\FrequencyCounter.c **** {
 858              		.loc 1 456 0
 859              		.cfi_startproc
 860 0000 80B5     		push	{r7, lr}
 861              		.cfi_def_cfa_offset 8
 862              		.cfi_offset 7, -8
 863              		.cfi_offset 14, -4
 864 0002 00AF     		add	r7, sp, #0
 865              		.cfi_def_cfa_register 7
 457:.\FrequencyCounter.c ****     /* Clear ISR for next interrupt */
 458:.\FrequencyCounter.c **** 	Input_Signal_Counter1_ClearInterrupt(Input_Signal_Counter1_INTR_MASK_CC_MATCH);
 866              		.loc 1 458 0
 867 0004 0220     		mov	r0, #2
 868 0006 FFF7FEFF 		bl	Input_Signal_Counter1_ClearInterrupt
 459:.\FrequencyCounter.c **** 	
 460:.\FrequencyCounter.c **** 	/* Store the captured count value */
 461:.\FrequencyCounter.c **** 	Input_Signal_Counter1_Count = Input_Signal_Counter1_ReadCapture();
 869              		.loc 1 461 0
 870 000a FFF7FEFF 		bl	Input_Signal_Counter1_ReadCapture
 871 000e 031C     		mov	r3, r0
 872 0010 9AB2     		uxth	r2, r3
 873 0012 064B     		ldr	r3, .L51
 874 0014 1A80     		strh	r2, [r3]
 462:.\FrequencyCounter.c **** 	Input_Signal_Counter2_Count = Input_Signal_Counter2_ReadCapture();
 875              		.loc 1 462 0
 876 0016 FFF7FEFF 		bl	Input_Signal_Counter2_ReadCapture
 877 001a 031C     		mov	r3, r0
 878 001c 9AB2     		uxth	r2, r3
 879 001e 044B     		ldr	r3, .L51+4
 880 0020 1A80     		strh	r2, [r3]
 463:.\FrequencyCounter.c **** 	
 464:.\FrequencyCounter.c **** 	/* Indicate that a valid capture event is detected */
 465:.\FrequencyCounter.c **** 	Input_Sig_Ctr_Capture = 1;
 881              		.loc 1 465 0
 882 0022 044B     		ldr	r3, .L51+8
 883 0024 0122     		mov	r2, #1
 884 0026 1A70     		strb	r2, [r3]
 466:.\FrequencyCounter.c **** }
 885              		.loc 1 466 0
 886 0028 BD46     		mov	sp, r7
 887              		@ sp needed
 888 002a 80BD     		pop	{r7, pc}
 889              	.L52:
 890              		.align	2
ARM GAS  C:\Users\owono\AppData\Local\Temp\ccQUw5d5.s 			page 25


 891              	.L51:
 892 002c 00000000 		.word	Input_Signal_Counter1_Count
 893 0030 00000000 		.word	Input_Signal_Counter2_Count
 894 0034 00000000 		.word	Input_Sig_Ctr_Capture
 895              		.cfi_endproc
 896              	.LFE43:
 897              		.size	Input_Sig_Ctr_InterruptHandler, .-Input_Sig_Ctr_InterruptHandler
 898              		.section	.text.Ref_Clk_Ctr_InterruptHandler,"ax",%progbits
 899              		.align	2
 900              		.global	Ref_Clk_Ctr_InterruptHandler
 901              		.code	16
 902              		.thumb_func
 903              		.type	Ref_Clk_Ctr_InterruptHandler, %function
 904              	Ref_Clk_Ctr_InterruptHandler:
 905              	.LFB44:
 467:.\FrequencyCounter.c **** 
 468:.\FrequencyCounter.c **** /*******************************************************************************
 469:.\FrequencyCounter.c **** * Function Name: Ref_Clk_Ctr_InterruptHandler
 470:.\FrequencyCounter.c **** ********************************************************************************
 471:.\FrequencyCounter.c **** *
 472:.\FrequencyCounter.c **** * Summary:
 473:.\FrequencyCounter.c **** *   The custom Interrupt Service Routine for Ref_Clk_Ctr ISR.
 474:.\FrequencyCounter.c **** *
 475:.\FrequencyCounter.c **** * Parameters:  
 476:.\FrequencyCounter.c **** *   None
 477:.\FrequencyCounter.c **** *
 478:.\FrequencyCounter.c **** * Return:
 479:.\FrequencyCounter.c **** *   None
 480:.\FrequencyCounter.c **** *
 481:.\FrequencyCounter.c **** *******************************************************************************/
 482:.\FrequencyCounter.c **** CY_ISR(Ref_Clk_Ctr_InterruptHandler)
 483:.\FrequencyCounter.c **** {
 906              		.loc 1 483 0
 907              		.cfi_startproc
 908 0000 80B5     		push	{r7, lr}
 909              		.cfi_def_cfa_offset 8
 910              		.cfi_offset 7, -8
 911              		.cfi_offset 14, -4
 912 0002 00AF     		add	r7, sp, #0
 913              		.cfi_def_cfa_register 7
 484:.\FrequencyCounter.c ****     /* Clear ISR for next interrupt */
 485:.\FrequencyCounter.c **** 	Ref_Clock_Counter1_ClearInterrupt(Ref_Clock_Counter1_INTR_MASK_CC_MATCH);
 914              		.loc 1 485 0
 915 0004 0220     		mov	r0, #2
 916 0006 FFF7FEFF 		bl	Ref_Clock_Counter1_ClearInterrupt
 486:.\FrequencyCounter.c **** 
 487:.\FrequencyCounter.c **** 	/* Store the captured count value */
 488:.\FrequencyCounter.c **** 	Ref_Clock_Counter1_Count = Ref_Clock_Counter1_ReadCapture();
 917              		.loc 1 488 0
 918 000a FFF7FEFF 		bl	Ref_Clock_Counter1_ReadCapture
 919 000e 031C     		mov	r3, r0
 920 0010 9AB2     		uxth	r2, r3
 921 0012 064B     		ldr	r3, .L54
 922 0014 1A80     		strh	r2, [r3]
 489:.\FrequencyCounter.c **** 	Ref_Clock_Counter2_Count = Ref_Clock_Counter2_ReadCapture();
 923              		.loc 1 489 0
 924 0016 FFF7FEFF 		bl	Ref_Clock_Counter2_ReadCapture
ARM GAS  C:\Users\owono\AppData\Local\Temp\ccQUw5d5.s 			page 26


 925 001a 031C     		mov	r3, r0
 926 001c 9AB2     		uxth	r2, r3
 927 001e 044B     		ldr	r3, .L54+4
 928 0020 1A80     		strh	r2, [r3]
 490:.\FrequencyCounter.c **** 
 491:.\FrequencyCounter.c **** 	/* Indicate that a valid capture event is detected */
 492:.\FrequencyCounter.c **** 	Ref_Clk_Ctr_Capture = 1;
 929              		.loc 1 492 0
 930 0022 044B     		ldr	r3, .L54+8
 931 0024 0122     		mov	r2, #1
 932 0026 1A70     		strb	r2, [r3]
 493:.\FrequencyCounter.c **** }...
 933              		.loc 1 493 0
 934 0028 BD46     		mov	sp, r7
 935              		@ sp needed
 936 002a 80BD     		pop	{r7, pc}
 937              	.L55:
 938              		.align	2
 939              	.L54:
 940 002c 00000000 		.word	Ref_Clock_Counter1_Count
 941 0030 00000000 		.word	Ref_Clock_Counter2_Count
 942 0034 00000000 		.word	Ref_Clk_Ctr_Capture
 943              		.cfi_endproc
 944              	.LFE44:
 945              		.size	Ref_Clk_Ctr_InterruptHandler, .-Ref_Clk_Ctr_InterruptHandler
 946              		.bss
 947              	FirstTime.7653:
 948 0000 00       		.space	1
 949              		.text
 950              	.Letext0:
 951              		.file 2 "Generated_Source\\PSoC4/cytypes.h"
 952              		.file 3 "Generated_Source\\PSoC4/BLE_Stack.h"