ARM GAS  C:\Users\owono\AppData\Local\Temp\cceaCmLP.s 			page 1


   1              		.cpu cortex-m0
   2              		.fpu softvfp
   3              		.eabi_attribute 20, 1
   4              		.eabi_attribute 21, 1
   5              		.eabi_attribute 23, 3
   6              		.eabi_attribute 24, 1
   7              		.eabi_attribute 25, 1
   8              		.eabi_attribute 26, 1
   9              		.eabi_attribute 30, 6
  10              		.eabi_attribute 34, 0
  11              		.eabi_attribute 18, 4
  12              		.code	16
  13              		.file	"main.c"
  14              		.text
  15              	.Ltext0:
  16              		.cfi_sections	.debug_frame
  17              		.comm	Calculate_Frequency,1,1
  18              		.section	.rodata
  19              		.align	2
  20              	.LC0:
  21 0000 57656C63 		.ascii	"Welcome to Frequency Measurement Using PSoC 4 BLE\012"
  21      6F6D6520 
  21      746F2046 
  21      72657175 
  21      656E6379 
  22 0032 00       		.ascii	"\000"
  23 0033 00       		.align	2
  24              	.LC5:
  25 0034 496E7075 		.ascii	"Input Signal Counter Value: \000"
  25      74205369 
  25      676E616C 
  25      20436F75 
  25      6E746572 
  26 0051 000000   		.align	2
  27              	.LC8:
  28 0054 20202020 		.ascii	"      \000"
  28      202000
  29 005b 00       		.align	2
  30              	.LC11:
  31 005c 52656665 		.ascii	"Reference Clock Counter Value: \000"
  31      72656E63 
  31      6520436C 
  31      6F636B20 
  31      436F756E 
  32              		.align	2
  33              	.LC15:
  34 007c 496E7075 		.ascii	"Input Frequency: \000"
  34      74204672 
  34      65717565 
  34      6E63793A 
  34      2000
  35 008e 0000     		.section	.text.main,"ax",%progbits
  36              		.align	2
  37              		.global	main
  38              		.code	16
  39              		.thumb_func
  40              		.type	main, %function
ARM GAS  C:\Users\owono\AppData\Local\Temp\cceaCmLP.s 			page 2


  41              	main:
  42              	.LFB37:
  43              		.file 1 ".\\main.c"
   1:.\main.c      **** /***************************************************************************//**
   2:.\main.c      **** * @file    main.c
   3:.\main.c      **** * @version 1.0
   4:.\main.c      **** * @authors DCHE
   5:.\main.c      **** *
   6:.\main.c      **** * @par Description
   7:.\main.c      **** *   This file contains the main source code for Frequency Measurement using
   8:.\main.c      **** *	PSoC 4 BLE.
   9:.\main.c      **** *
  10:.\main.c      **** * @par Notes
  11:.\main.c      **** *	None
  12:.\main.c      **** *
  13:.\main.c      **** * @par Hardware Dependency
  14:.\main.c      **** *    1. CY8CKIT-042 BLE Pioneer Kit
  15:.\main.c      **** *
  16:.\main.c      **** * @par References
  17:.\main.c      **** *    1. 001-32359: AN2283 "PSoC 1 Measuring Frequency"
  18:.\main.c      **** *
  19:.\main.c      **** * @par Code Tested With
  20:.\main.c      **** *    1. PSoC Creator  3.1 SP2 (3.1.0.2177)
  21:.\main.c      **** *    2. GCC 4.8.4
  22:.\main.c      **** *
  23:.\main.c      **** **//****************************************************************************
  24:.\main.c      **** * Copyright (2015), Cypress Semiconductor Corporation.
  25:.\main.c      **** ********************************************************************************
  26:.\main.c      **** * All rights reserved. 
  27:.\main.c      **** * This software, including source code, documentation and related 
  28:.\main.c      **** * materials (“Software”), is owned by Cypress Semiconductor 
  29:.\main.c      **** * Corporation (“Cypress”) and is protected by and subject to worldwide 
  30:.\main.c      **** * patent protection (United States and foreign), United States copyright 
  31:.\main.c      **** * laws and international treaty provisions. Therefore, you may use this 
  32:.\main.c      **** * Software only as provided in the license agreement accompanying the 
  33:.\main.c      **** * software package from which you obtained this Software (“EULA”). 
  34:.\main.c      **** *
  35:.\main.c      **** * If no EULA applies, Cypress hereby grants you a personal, non-exclusive, 
  36:.\main.c      **** * non-transferable license to copy, modify and compile the Software source code
  37:.\main.c      **** * solely for your use in connection with Cypress's integrated circuit products.
  38:.\main.c      **** * Any reproduction, modification, translation, compilation, or representation
  39:.\main.c      **** * of this Software except as specified above is prohibited without the express
  40:.\main.c      **** * written permission of Cypress.
  41:.\main.c      **** 
  42:.\main.c      **** * Disclaimer: THIS SOFTWARE IS PROVIDED AS-IS, WITH NO WARRANTY OF ANY KIND,
  43:.\main.c      **** * EXPRESS OR IMPLIED, INCLUDING, BUT NOT LIMITED TO, NONINFRINGEMENT, IMPLIED
  44:.\main.c      **** * WARRANTIES OF MERCHANTABILITY AND FITNESS FOR A PARTICULAR PURPOSE.
  45:.\main.c      **** * Cypress reserves the right to make changes to the Software without notice. 
  46:.\main.c      **** * Cypress does not assume any liability arising out of the application or use 
  47:.\main.c      **** * of the Software or any product or circuit described in the Software. Cypress
  48:.\main.c      **** * does not authorize its products for use in any products where a malfunction
  49:.\main.c      **** * or failure of the Cypress product may reasonably be expected to result in 
  50:.\main.c      **** * significant property damage, injury or death (“High Risk Product”). By 
  51:.\main.c      **** * including Cypress’s product in a High Risk Product, the manufacturer of such  
  52:.\main.c      **** * system or application assumes all risk of such use and in doing so agrees to  
  53:.\main.c      **** * indemnify Cypress against all liability. 
  54:.\main.c      **** *******************************************************************************/
ARM GAS  C:\Users\owono\AppData\Local\Temp\cceaCmLP.s 			page 3


  55:.\main.c      **** 
  56:.\main.c      **** /*******************************************************************************
  57:.\main.c      **** *   Included Headers and Macros
  58:.\main.c      **** *******************************************************************************/
  59:.\main.c      **** #include "main.h"
  60:.\main.c      **** /*******************************************************************************
  61:.\main.c      **** *   Variable and Function Declarations
  62:.\main.c      **** *******************************************************************************/
  63:.\main.c      **** 
  64:.\main.c      **** /*'deviceConnected' flag is used by application to know whether a Central device  
  65:.\main.c      **** * has been connected. This is updated in BLE event callback */
  66:.\main.c      **** extern uint8 deviceConnected;
  67:.\main.c      **** 
  68:.\main.c      **** /*'startNotification' flag is set when the central device writes to CCC (Client  
  69:.\main.c      **** * Characteristic Configuration) of the Custom characteristic to 
  70:.\main.c      **** * enable notifications */
  71:.\main.c      **** extern uint8 startNotification;	
  72:.\main.c      **** 
  73:.\main.c      **** /* 'restartAdvertisement' flag is used to restart advertisement */
  74:.\main.c      **** extern uint8 restartAdvertisement;
  75:.\main.c      **** 
  76:.\main.c      **** /* Array to store the computed frequency in ASCII format */
  77:.\main.c      **** extern uint8 Input_Frequency[FREQ_DATA_LEN];
  78:.\main.c      **** 
  79:.\main.c      **** /* Array to store the input counter count in ASCII format */
  80:.\main.c      **** extern uint8 InputCounter_ASCII[FREQ_DATA_LEN];
  81:.\main.c      **** 
  82:.\main.c      **** /* Array to store the ref clock counter count in ASCII format */
  83:.\main.c      **** extern uint8 RefCounter_ASCII[FREQ_DATA_LEN];
  84:.\main.c      **** 
  85:.\main.c      **** /* Variable to indicate CPU to compute frequency of the input signal */
  86:.\main.c      **** uint8 Calculate_Frequency;
  87:.\main.c      **** 
  88:.\main.c      **** /* Variable that holds the input signal count and reference clock count */
  89:.\main.c      **** extern uint32 Input_Signal_Count, Ref_Clock_Count;
  90:.\main.c      **** 
  91:.\main.c      **** /* Variable to indicate that a valid capture is detected for input signal 
  92:.\main.c      ****    counter and reference clock counter */
  93:.\main.c      **** extern uint8 Input_Sig_Ctr_Capture, Ref_Clk_Ctr_Capture;
  94:.\main.c      **** 
  95:.\main.c      **** /*******************************************************************************
  96:.\main.c      **** * Function Name: main
  97:.\main.c      **** ********************************************************************************
  98:.\main.c      **** *
  99:.\main.c      **** * Summary:
 100:.\main.c      **** *   This is the main entry point for this application. This function initializes all the 
 101:.\main.c      **** *	components used in the project. It computes the frequency whenever a capture event is 
 102:.\main.c      **** *
 103:.\main.c      **** * Parameters:  
 104:.\main.c      **** *   None
 105:.\main.c      **** *
 106:.\main.c      **** * Return:
 107:.\main.c      **** *   None
 108:.\main.c      **** *
 109:.\main.c      **** *******************************************************************************/
 110:.\main.c      **** int main()
 111:.\main.c      **** {
ARM GAS  C:\Users\owono\AppData\Local\Temp\cceaCmLP.s 			page 4


  44              		.loc 1 111 0
  45              		.cfi_startproc
  46 0000 80B5     		push	{r7, lr}
  47              		.cfi_def_cfa_offset 8
  48              		.cfi_offset 7, -8
  49              		.cfi_offset 14, -4
  50 0002 82B0     		sub	sp, sp, #8
  51              		.cfi_def_cfa_offset 16
  52 0004 00AF     		add	r7, sp, #0
  53              		.cfi_def_cfa_register 7
 112:.\main.c      **** 	#if(UART_DEBUG_ENABLE)
 113:.\main.c      **** 		/* Variable to store the loop number */
 114:.\main.c      **** 		uint8 loopNo = 0;
  54              		.loc 1 114 0
  55 0006 FB1D     		add	r3, r7, #7
  56 0008 0022     		mov	r2, #0
  57 000a 1A70     		strb	r2, [r3]
 115:.\main.c      **** 	#endif
 116:.\main.c      **** 	/* Enable global interrupt mask */
 117:.\main.c      **** 	CyGlobalIntEnable;	
  58              		.loc 1 117 0
  59              	@ 117 ".\main.c" 1
  60 000c 62B6     		CPSIE   i
  61              	@ 0 "" 2
 118:.\main.c      **** 	
 119:.\main.c      **** 	/* Disable ILO as it is not used */
 120:.\main.c      **** 	CySysClkIloStop();
  62              		.loc 1 120 0
  63              		.code	16
  64 000e FFF7FEFF 		bl	CySysClkIloStop
 121:.\main.c      **** 	
 122:.\main.c      **** 	/* Initialize components related to BLE communication */
 123:.\main.c      **** 	InitializeBLESystem();
  65              		.loc 1 123 0
  66 0012 FFF7FEFF 		bl	InitializeBLESystem
 124:.\main.c      **** 	
 125:.\main.c      **** 	/* Initialize components related to frequency counting */
 126:.\main.c      **** 	Initialize_Freq_Meas_System();
  67              		.loc 1 126 0
  68 0016 FFF7FEFF 		bl	Initialize_Freq_Meas_System
 127:.\main.c      **** 	
 128:.\main.c      **** 	/* Start UART component if UART debug is enabled */
 129:.\main.c      **** 	#if(UART_DEBUG_ENABLE)
 130:.\main.c      **** 		/* Start UART component and send welcome string to hyper terminal on PC */
 131:.\main.c      **** 		UART_Start();
  69              		.loc 1 131 0
  70 001a FFF7FEFF 		bl	UART_Start
 132:.\main.c      **** 		UART_UartPutString("Welcome to Frequency Measurement Using PSoC 4 BLE\n");
  71              		.loc 1 132 0
  72 001e 744B     		ldr	r3, .L16
  73 0020 181C     		mov	r0, r3
  74 0022 FFF7FEFF 		bl	UART_UartPutString
 133:.\main.c      **** 		UART_PutCRLF();
  75              		.loc 1 133 0
  76 0026 FFF7FEFF 		bl	UART_PutCRLF
  77              	.L15:
 134:.\main.c      **** 	#endif
ARM GAS  C:\Users\owono\AppData\Local\Temp\cceaCmLP.s 			page 5


 135:.\main.c      **** 	
 136:.\main.c      ****     while(1)
 137:.\main.c      ****     {
 138:.\main.c      **** 		/* Compute frequency once in every PWM interval(2s) */
 139:.\main.c      **** 		if(Calculate_Frequency == TRUE)
  78              		.loc 1 139 0
  79 002a 724B     		ldr	r3, .L16+4
  80 002c 1B78     		ldrb	r3, [r3]
  81 002e 012B     		cmp	r3, #1
  82 0030 00D0     		beq	.LCB29
  83 0032 C5E0     		b	.L2	@long jump
  84              	.LCB29:
 140:.\main.c      **** 		{
 141:.\main.c      **** 			/* Check if valid capture event is detected */
 142:.\main.c      **** 			if((Input_Sig_Ctr_Capture == 1) && (Ref_Clk_Ctr_Capture == 1))
  85              		.loc 1 142 0
  86 0034 704B     		ldr	r3, .L16+8
  87 0036 1B78     		ldrb	r3, [r3]
  88 0038 012B     		cmp	r3, #1
  89 003a 00D0     		beq	.LCB33
  90 003c 8BE0     		b	.L3	@long jump
  91              	.LCB33:
  92              		.loc 1 142 0 is_stmt 0 discriminator 1
  93 003e 6F4B     		ldr	r3, .L16+12
  94 0040 1B78     		ldrb	r3, [r3]
  95 0042 012B     		cmp	r3, #1
  96 0044 00D0     		beq	.LCB37
  97 0046 86E0     		b	.L3	@long jump
  98              	.LCB37:
 143:.\main.c      **** 			{
 144:.\main.c      **** 				/* Compute frequency using the latched count value, computed frequency 
 145:.\main.c      **** 				will be stored in ASCII format in a global array */
 146:.\main.c      **** 				Compute_Frequency();
  99              		.loc 1 146 0 is_stmt 1
 100 0048 FFF7FEFF 		bl	Compute_Frequency
 147:.\main.c      **** 				
 148:.\main.c      **** 				#if(UART_DEBUG_ENABLE)
 149:.\main.c      **** 					/* Print input signal counter value in hexadecimal */
 150:.\main.c      **** 					UART_UartPutString("Input Signal Counter Value: ");
 101              		.loc 1 150 0
 102 004c 6C4B     		ldr	r3, .L16+16
 103 004e 181C     		mov	r0, r3
 104 0050 FFF7FEFF 		bl	UART_UartPutString
 151:.\main.c      **** 					UART_SendDebugData(Input_Signal_Count);
 105              		.loc 1 151 0
 106 0054 6B4B     		ldr	r3, .L16+20
 107 0056 1B68     		ldr	r3, [r3]
 108 0058 181C     		mov	r0, r3
 109 005a FFF7FEFF 		bl	UART_SendDebugData
 152:.\main.c      **** 					UART_UartPutString("      ");
 110              		.loc 1 152 0
 111 005e 6A4B     		ldr	r3, .L16+24
 112 0060 181C     		mov	r0, r3
 113 0062 FFF7FEFF 		bl	UART_UartPutString
 153:.\main.c      **** 					
 154:.\main.c      **** 					/* Print input signal counter value in ASCII format */	
 155:.\main.c      **** 					/* Reset the array before storing the ASCII character */
ARM GAS  C:\Users\owono\AppData\Local\Temp\cceaCmLP.s 			page 6


 156:.\main.c      **** 					Reset_Array(InputCounter_ASCII, DATA_END);
 114              		.loc 1 156 0
 115 0066 694B     		ldr	r3, .L16+28
 116 0068 181C     		mov	r0, r3
 117 006a 0A21     		mov	r1, #10
 118 006c FFF7FEFF 		bl	Reset_Array
 157:.\main.c      **** 					
 158:.\main.c      **** 					Convert_HextoDec(Input_Signal_Count, InputCounter_ASCII);
 119              		.loc 1 158 0
 120 0070 644B     		ldr	r3, .L16+20
 121 0072 1A68     		ldr	r2, [r3]
 122 0074 654B     		ldr	r3, .L16+28
 123 0076 101C     		mov	r0, r2
 124 0078 191C     		mov	r1, r3
 125 007a FFF7FEFF 		bl	Convert_HextoDec
 159:.\main.c      **** 					for(loopNo = 0; loopNo < DATA_END; loopNo++)
 126              		.loc 1 159 0
 127 007e FB1D     		add	r3, r7, #7
 128 0080 0022     		mov	r2, #0
 129 0082 1A70     		strb	r2, [r3]
 130 0084 0DE0     		b	.L4
 131              	.L5:
 160:.\main.c      **** 					{
 161:.\main.c      **** 						UART_UartPutChar(InputCounter_ASCII[DATA_END - loopNo -1]);
 132              		.loc 1 161 0 discriminator 3
 133 0086 FB1D     		add	r3, r7, #7
 134 0088 1B78     		ldrb	r3, [r3]
 135 008a 0922     		mov	r2, #9
 136 008c D31A     		sub	r3, r2, r3
 137 008e 5F4A     		ldr	r2, .L16+28
 138 0090 D35C     		ldrb	r3, [r2, r3]
 139 0092 181C     		mov	r0, r3
 140 0094 FFF7FEFF 		bl	UART_SpiUartWriteTxData
 159:.\main.c      **** 					for(loopNo = 0; loopNo < DATA_END; loopNo++)
 141              		.loc 1 159 0 discriminator 3
 142 0098 FB1D     		add	r3, r7, #7
 143 009a 1A78     		ldrb	r2, [r3]
 144 009c FB1D     		add	r3, r7, #7
 145 009e 0132     		add	r2, r2, #1
 146 00a0 1A70     		strb	r2, [r3]
 147              	.L4:
 159:.\main.c      **** 					for(loopNo = 0; loopNo < DATA_END; loopNo++)
 148              		.loc 1 159 0 is_stmt 0 discriminator 1
 149 00a2 FB1D     		add	r3, r7, #7
 150 00a4 1B78     		ldrb	r3, [r3]
 151 00a6 092B     		cmp	r3, #9
 152 00a8 EDD9     		bls	.L5
 162:.\main.c      **** 					}
 163:.\main.c      **** 					UART_PutCRLF();	
 153              		.loc 1 163 0 is_stmt 1
 154 00aa FFF7FEFF 		bl	UART_PutCRLF
 164:.\main.c      **** 
 165:.\main.c      **** 					/* Print reference clock counter value */
 166:.\main.c      **** 					UART_UartPutString("Reference Clock Counter Value: ");
 155              		.loc 1 166 0
 156 00ae 584B     		ldr	r3, .L16+32
 157 00b0 181C     		mov	r0, r3
ARM GAS  C:\Users\owono\AppData\Local\Temp\cceaCmLP.s 			page 7


 158 00b2 FFF7FEFF 		bl	UART_UartPutString
 167:.\main.c      **** 					UART_SendDebugData(Ref_Clock_Count);
 159              		.loc 1 167 0
 160 00b6 574B     		ldr	r3, .L16+36
 161 00b8 1B68     		ldr	r3, [r3]
 162 00ba 181C     		mov	r0, r3
 163 00bc FFF7FEFF 		bl	UART_SendDebugData
 168:.\main.c      **** 					UART_UartPutString("      ");
 164              		.loc 1 168 0
 165 00c0 514B     		ldr	r3, .L16+24
 166 00c2 181C     		mov	r0, r3
 167 00c4 FFF7FEFF 		bl	UART_UartPutString
 169:.\main.c      **** 					
 170:.\main.c      **** 					/* Print input signal counter value in ASCII format */	
 171:.\main.c      **** 					/* Reset the array before storing the ASCII character */				
 172:.\main.c      **** 					Reset_Array(RefCounter_ASCII, DATA_END);
 168              		.loc 1 172 0
 169 00c8 534B     		ldr	r3, .L16+40
 170 00ca 181C     		mov	r0, r3
 171 00cc 0A21     		mov	r1, #10
 172 00ce FFF7FEFF 		bl	Reset_Array
 173:.\main.c      **** 					Convert_HextoDec(Ref_Clock_Count, RefCounter_ASCII);
 173              		.loc 1 173 0
 174 00d2 504B     		ldr	r3, .L16+36
 175 00d4 1A68     		ldr	r2, [r3]
 176 00d6 504B     		ldr	r3, .L16+40
 177 00d8 101C     		mov	r0, r2
 178 00da 191C     		mov	r1, r3
 179 00dc FFF7FEFF 		bl	Convert_HextoDec
 174:.\main.c      **** 					for(loopNo = 0; loopNo < DATA_END; loopNo++)
 180              		.loc 1 174 0
 181 00e0 FB1D     		add	r3, r7, #7
 182 00e2 0022     		mov	r2, #0
 183 00e4 1A70     		strb	r2, [r3]
 184 00e6 0DE0     		b	.L6
 185              	.L7:
 175:.\main.c      **** 					{
 176:.\main.c      **** 						UART_UartPutChar(RefCounter_ASCII[DATA_END - loopNo -1]);
 186              		.loc 1 176 0 discriminator 3
 187 00e8 FB1D     		add	r3, r7, #7
 188 00ea 1B78     		ldrb	r3, [r3]
 189 00ec 0922     		mov	r2, #9
 190 00ee D31A     		sub	r3, r2, r3
 191 00f0 494A     		ldr	r2, .L16+40
 192 00f2 D35C     		ldrb	r3, [r2, r3]
 193 00f4 181C     		mov	r0, r3
 194 00f6 FFF7FEFF 		bl	UART_SpiUartWriteTxData
 174:.\main.c      **** 					for(loopNo = 0; loopNo < DATA_END; loopNo++)
 195              		.loc 1 174 0 discriminator 3
 196 00fa FB1D     		add	r3, r7, #7
 197 00fc 1A78     		ldrb	r2, [r3]
 198 00fe FB1D     		add	r3, r7, #7
 199 0100 0132     		add	r2, r2, #1
 200 0102 1A70     		strb	r2, [r3]
 201              	.L6:
 174:.\main.c      **** 					for(loopNo = 0; loopNo < DATA_END; loopNo++)
 202              		.loc 1 174 0 is_stmt 0 discriminator 1
ARM GAS  C:\Users\owono\AppData\Local\Temp\cceaCmLP.s 			page 8


 203 0104 FB1D     		add	r3, r7, #7
 204 0106 1B78     		ldrb	r3, [r3]
 205 0108 092B     		cmp	r3, #9
 206 010a EDD9     		bls	.L7
 177:.\main.c      **** 					}
 178:.\main.c      **** 					UART_PutCRLF();
 207              		.loc 1 178 0 is_stmt 1
 208 010c FFF7FEFF 		bl	UART_PutCRLF
 179:.\main.c      **** 					
 180:.\main.c      **** 					/* Print Input Signal Frequency in decimal format */
 181:.\main.c      **** 					UART_UartPutString("Input Frequency: ");
 209              		.loc 1 181 0
 210 0110 424B     		ldr	r3, .L16+44
 211 0112 181C     		mov	r0, r3
 212 0114 FFF7FEFF 		bl	UART_UartPutString
 182:.\main.c      **** 					for(loopNo = 0; loopNo < DATA_END; loopNo++)
 213              		.loc 1 182 0
 214 0118 FB1D     		add	r3, r7, #7
 215 011a 0022     		mov	r2, #0
 216 011c 1A70     		strb	r2, [r3]
 217 011e 0DE0     		b	.L8
 218              	.L9:
 183:.\main.c      **** 					{
 184:.\main.c      **** 						UART_UartPutChar(Input_Frequency[DATA_END - loopNo -1]);
 219              		.loc 1 184 0 discriminator 3
 220 0120 FB1D     		add	r3, r7, #7
 221 0122 1B78     		ldrb	r3, [r3]
 222 0124 0922     		mov	r2, #9
 223 0126 D31A     		sub	r3, r2, r3
 224 0128 3D4A     		ldr	r2, .L16+48
 225 012a D35C     		ldrb	r3, [r2, r3]
 226 012c 181C     		mov	r0, r3
 227 012e FFF7FEFF 		bl	UART_SpiUartWriteTxData
 182:.\main.c      **** 					for(loopNo = 0; loopNo < DATA_END; loopNo++)
 228              		.loc 1 182 0 discriminator 3
 229 0132 FB1D     		add	r3, r7, #7
 230 0134 1A78     		ldrb	r2, [r3]
 231 0136 FB1D     		add	r3, r7, #7
 232 0138 0132     		add	r2, r2, #1
 233 013a 1A70     		strb	r2, [r3]
 234              	.L8:
 182:.\main.c      **** 					for(loopNo = 0; loopNo < DATA_END; loopNo++)
 235              		.loc 1 182 0 is_stmt 0 discriminator 1
 236 013c FB1D     		add	r3, r7, #7
 237 013e 1B78     		ldrb	r3, [r3]
 238 0140 092B     		cmp	r3, #9
 239 0142 EDD9     		bls	.L9
 185:.\main.c      **** 					}
 186:.\main.c      **** 					UART_PutCRLF();			
 240              		.loc 1 186 0 is_stmt 1
 241 0144 FFF7FEFF 		bl	UART_PutCRLF
 187:.\main.c      **** 				#endif
 188:.\main.c      **** 				/* Reset the capture flag after computing the frequency */
 189:.\main.c      **** 				Input_Sig_Ctr_Capture = 0;
 242              		.loc 1 189 0
 243 0148 2B4B     		ldr	r3, .L16+8
 244 014a 0022     		mov	r2, #0
ARM GAS  C:\Users\owono\AppData\Local\Temp\cceaCmLP.s 			page 9


 245 014c 1A70     		strb	r2, [r3]
 190:.\main.c      **** 				Ref_Clk_Ctr_Capture = 0;
 246              		.loc 1 190 0
 247 014e 2B4B     		ldr	r3, .L16+12
 248 0150 0022     		mov	r2, #0
 249 0152 1A70     		strb	r2, [r3]
 250 0154 23E0     		b	.L10
 251              	.L3:
 191:.\main.c      **** 			} 
 192:.\main.c      **** 			/* If valid capture event is not registered, set the value of frequency to 
 193:.\main.c      **** 			   zero */
 194:.\main.c      **** 			else
 195:.\main.c      **** 			{
 196:.\main.c      **** 				/* Reset the input_frequency array before storing the frequency value */
 197:.\main.c      **** 				Reset_Array(Input_Frequency, DATA_END);
 252              		.loc 1 197 0
 253 0156 324B     		ldr	r3, .L16+48
 254 0158 181C     		mov	r0, r3
 255 015a 0A21     		mov	r1, #10
 256 015c FFF7FEFF 		bl	Reset_Array
 198:.\main.c      ****                 
 199:.\main.c      **** 				/* If no capture event is detected in the 1s interval, set the frequency to zero */
 200:.\main.c      **** 				FormatFrequencyData(ZERO_HZ);
 257              		.loc 1 200 0
 258 0160 0420     		mov	r0, #4
 259 0162 FFF7FEFF 		bl	FormatFrequencyData
 201:.\main.c      **** 				
 202:.\main.c      **** 				#if(UART_DEBUG_ENABLE)
 203:.\main.c      **** 					/* Print Input Signal Frequency in decimal format */
 204:.\main.c      **** 					UART_UartPutString("Input Frequency: ");
 260              		.loc 1 204 0
 261 0166 2D4B     		ldr	r3, .L16+44
 262 0168 181C     		mov	r0, r3
 263 016a FFF7FEFF 		bl	UART_UartPutString
 205:.\main.c      **** 					for(loopNo = 0; loopNo < DATA_END; loopNo++)
 264              		.loc 1 205 0
 265 016e FB1D     		add	r3, r7, #7
 266 0170 0022     		mov	r2, #0
 267 0172 1A70     		strb	r2, [r3]
 268 0174 0DE0     		b	.L11
 269              	.L12:
 206:.\main.c      **** 					{
 207:.\main.c      **** 						UART_UartPutChar(Input_Frequency[DATA_END - loopNo -1]);
 270              		.loc 1 207 0 discriminator 3
 271 0176 FB1D     		add	r3, r7, #7
 272 0178 1B78     		ldrb	r3, [r3]
 273 017a 0922     		mov	r2, #9
 274 017c D31A     		sub	r3, r2, r3
 275 017e 284A     		ldr	r2, .L16+48
 276 0180 D35C     		ldrb	r3, [r2, r3]
 277 0182 181C     		mov	r0, r3
 278 0184 FFF7FEFF 		bl	UART_SpiUartWriteTxData
 205:.\main.c      **** 					for(loopNo = 0; loopNo < DATA_END; loopNo++)
 279              		.loc 1 205 0 discriminator 3
 280 0188 FB1D     		add	r3, r7, #7
 281 018a 1A78     		ldrb	r2, [r3]
 282 018c FB1D     		add	r3, r7, #7
ARM GAS  C:\Users\owono\AppData\Local\Temp\cceaCmLP.s 			page 10


 283 018e 0132     		add	r2, r2, #1
 284 0190 1A70     		strb	r2, [r3]
 285              	.L11:
 205:.\main.c      **** 					for(loopNo = 0; loopNo < DATA_END; loopNo++)
 286              		.loc 1 205 0 is_stmt 0 discriminator 1
 287 0192 FB1D     		add	r3, r7, #7
 288 0194 1B78     		ldrb	r3, [r3]
 289 0196 092B     		cmp	r3, #9
 290 0198 EDD9     		bls	.L12
 208:.\main.c      **** 					}
 209:.\main.c      **** 					UART_PutCRLF();	
 291              		.loc 1 209 0 is_stmt 1
 292 019a FFF7FEFF 		bl	UART_PutCRLF
 293              	.L10:
 210:.\main.c      **** 				#endif
 211:.\main.c      **** 			}
 212:.\main.c      **** 			/* Reset the 2s interval flag for computing the frequency in the next interval */
 213:.\main.c      **** 			Calculate_Frequency = 0;
 294              		.loc 1 213 0
 295 019e 154B     		ldr	r3, .L16+4
 296 01a0 0022     		mov	r2, #0
 297 01a2 1A70     		strb	r2, [r3]
 214:.\main.c      **** 			/* Send frequency value only if BLE device is connected */
 215:.\main.c      **** 			if(TRUE == deviceConnected) 
 298              		.loc 1 215 0
 299 01a4 1F4B     		ldr	r3, .L16+52
 300 01a6 1B78     		ldrb	r3, [r3]
 301 01a8 012B     		cmp	r3, #1
 302 01aa 09D1     		bne	.L2
 216:.\main.c      **** 			{
 217:.\main.c      **** 				/* Send frequency value when notifications are enabled */
 218:.\main.c      **** 				if((startNotification & CCCD_NTF_BIT_MASK))
 303              		.loc 1 218 0
 304 01ac 1E4B     		ldr	r3, .L16+56
 305 01ae 1B78     		ldrb	r3, [r3]
 306 01b0 1A1C     		mov	r2, r3
 307 01b2 0123     		mov	r3, #1
 308 01b4 1340     		and	r3, r2
 309 01b6 03D0     		beq	.L2
 219:.\main.c      **** 				{
 220:.\main.c      **** 
 221:.\main.c      **** 					/* Send the frequency value to BLE central device by notifications */
 222:.\main.c      **** 					SendDataOverFreqCounterNotification(Input_Frequency);
 310              		.loc 1 222 0
 311 01b8 194B     		ldr	r3, .L16+48
 312 01ba 181C     		mov	r0, r3
 313 01bc FFF7FEFF 		bl	SendDataOverFreqCounterNotification
 314              	.L2:
 223:.\main.c      **** 				}
 224:.\main.c      **** 			}
 225:.\main.c      **** 		}
 226:.\main.c      **** 
 227:.\main.c      **** 		
 228:.\main.c      **** 		/* Function to handle LED status depending on BLE state */
 229:.\main.c      **** 		HandleStatusLED();
 315              		.loc 1 229 0
 316 01c0 FFF7FEFF 		bl	HandleStatusLED
ARM GAS  C:\Users\owono\AppData\Local\Temp\cceaCmLP.s 			page 11


 230:.\main.c      **** 		
 231:.\main.c      **** 		/* Handle CCCD value update only if BLE device is connected */
 232:.\main.c      **** 		if(TRUE == deviceConnected) 
 317              		.loc 1 232 0
 318 01c4 174B     		ldr	r3, .L16+52
 319 01c6 1B78     		ldrb	r3, [r3]
 320 01c8 012B     		cmp	r3, #1
 321 01ca 01D1     		bne	.L13
 233:.\main.c      **** 		{
 234:.\main.c      **** 	
 235:.\main.c      **** 			/* When the Client Characteristic Configuration descriptor (CCCD) is written
 236:.\main.c      **** 			* by Central device for enabling/disabling notifications, then the same
 237:.\main.c      **** 			* descriptor value has to be explicitly updated in application so that
 238:.\main.c      **** 			* it reflects the correct value when the descriptor is read */
 239:.\main.c      **** 			UpdateNotificationCCCD();	
 322              		.loc 1 239 0
 323 01cc FFF7FEFF 		bl	UpdateNotificationCCCD
 324              	.L13:
 240:.\main.c      **** 		}		
 241:.\main.c      **** 		if(restartAdvertisement)
 325              		.loc 1 241 0
 326 01d0 164B     		ldr	r3, .L16+60
 327 01d2 1B78     		ldrb	r3, [r3]
 328 01d4 002B     		cmp	r3, #0
 329 01d6 05D0     		beq	.L14
 242:.\main.c      **** 		{
 243:.\main.c      **** 			/* Reset 'restartAdvertisement' flag*/
 244:.\main.c      **** 			restartAdvertisement = FALSE;
 330              		.loc 1 244 0
 331 01d8 144B     		ldr	r3, .L16+60
 332 01da 0022     		mov	r2, #0
 333 01dc 1A70     		strb	r2, [r3]
 245:.\main.c      **** 			
 246:.\main.c      **** 			/* Start Advertisement and enter Discoverable mode*/
 247:.\main.c      **** 			CyBle_GappStartAdvertisement(CYBLE_ADVERTISING_FAST);	
 334              		.loc 1 247 0
 335 01de 0020     		mov	r0, #0
 336 01e0 FFF7FEFF 		bl	CyBle_GappStartAdvertisement
 337              	.L14:
 248:.\main.c      **** 		}
 249:.\main.c      **** 		/*Process Event callback to handle BLE events. The events generated and 
 250:.\main.c      **** 		* used for this application are inside the 'CustomEventHandler' routine*/
 251:.\main.c      **** 		CyBle_ProcessEvents();
 338              		.loc 1 251 0
 339 01e4 FFF7FEFF 		bl	CyBle_ProcessEvents
 252:.\main.c      **** 		
 253:.\main.c      **** 		/* Put CPU to sleep */
 254:.\main.c      **** 		CySysPmSleep();
 340              		.loc 1 254 0
 341 01e8 FFF7FEFF 		bl	CySysPmSleep
 255:.\main.c      ****     }
 342              		.loc 1 255 0
 343 01ec 1DE7     		b	.L15
 344              	.L17:
 345 01ee C046     		.align	2
 346              	.L16:
 347 01f0 00000000 		.word	.LC0
ARM GAS  C:\Users\owono\AppData\Local\Temp\cceaCmLP.s 			page 12


 348 01f4 00000000 		.word	Calculate_Frequency
 349 01f8 00000000 		.word	Input_Sig_Ctr_Capture
 350 01fc 00000000 		.word	Ref_Clk_Ctr_Capture
 351 0200 34000000 		.word	.LC5
 352 0204 00000000 		.word	Input_Signal_Count
 353 0208 54000000 		.word	.LC8
 354 020c 00000000 		.word	InputCounter_ASCII
 355 0210 5C000000 		.word	.LC11
 356 0214 00000000 		.word	Ref_Clock_Count
 357 0218 00000000 		.word	RefCounter_ASCII
 358 021c 7C000000 		.word	.LC15
 359 0220 00000000 		.word	Input_Frequency
 360 0224 00000000 		.word	deviceConnected
 361 0228 00000000 		.word	startNotification
 362 022c 00000000 		.word	restartAdvertisement
 363              		.cfi_endproc
 364              	.LFE37:
 365              		.size	main, .-main
 366              		.text
 367              	.Letext0:
 368              		.file 2 "Generated_Source\\PSoC4/cytypes.h"
 369              		.file 3 "Generated_Source\\PSoC4/BLE_Stack.h"